
ft.S:     file format elf64-x86-64


Disassembly of section .init:

0000000000401000 <_init>:
  401000:	f3 0f 1e fa          	endbr64 
  401004:	48 83 ec 08          	sub    $0x8,%rsp
  401008:	48 8b 05 e9 4f 00 00 	mov    0x4fe9(%rip),%rax        # 405ff8 <__gmon_start__>
  40100f:	48 85 c0             	test   %rax,%rax
  401012:	74 02                	je     401016 <_init+0x16>
  401014:	ff d0                	callq  *%rax
  401016:	48 83 c4 08          	add    $0x8,%rsp
  40101a:	c3                   	retq   

Disassembly of section .plt:

0000000000401020 <.plt>:
  401020:	ff 35 e2 4f 00 00    	pushq  0x4fe2(%rip)        # 406008 <_GLOBAL_OFFSET_TABLE_+0x8>
  401026:	ff 25 e4 4f 00 00    	jmpq   *0x4fe4(%rip)        # 406010 <_GLOBAL_OFFSET_TABLE_+0x10>
  40102c:	0f 1f 40 00          	nopl   0x0(%rax)

0000000000401030 <puts@plt>:
  401030:	ff 25 e2 4f 00 00    	jmpq   *0x4fe2(%rip)        # 406018 <puts@GLIBC_2.2.5>
  401036:	68 00 00 00 00       	pushq  $0x0
  40103b:	e9 e0 ff ff ff       	jmpq   401020 <.plt>

0000000000401040 <printf@plt>:
  401040:	ff 25 da 4f 00 00    	jmpq   *0x4fda(%rip)        # 406020 <printf@GLIBC_2.2.5>
  401046:	68 01 00 00 00       	pushq  $0x1
  40104b:	e9 d0 ff ff ff       	jmpq   401020 <.plt>

0000000000401050 <gettimeofday@plt>:
  401050:	ff 25 d2 4f 00 00    	jmpq   *0x4fd2(%rip)        # 406028 <gettimeofday@GLIBC_2.2.5>
  401056:	68 02 00 00 00       	pushq  $0x2
  40105b:	e9 c0 ff ff ff       	jmpq   401020 <.plt>

0000000000401060 <cos@plt>:
  401060:	ff 25 ca 4f 00 00    	jmpq   *0x4fca(%rip)        # 406030 <cos@GLIBC_2.2.5>
  401066:	68 03 00 00 00       	pushq  $0x3
  40106b:	e9 b0 ff ff ff       	jmpq   401020 <.plt>

0000000000401070 <sin@plt>:
  401070:	ff 25 c2 4f 00 00    	jmpq   *0x4fc2(%rip)        # 406038 <sin@GLIBC_2.2.5>
  401076:	68 04 00 00 00       	pushq  $0x4
  40107b:	e9 a0 ff ff ff       	jmpq   401020 <.plt>

0000000000401080 <exit@plt>:
  401080:	ff 25 ba 4f 00 00    	jmpq   *0x4fba(%rip)        # 406040 <exit@GLIBC_2.2.5>
  401086:	68 05 00 00 00       	pushq  $0x5
  40108b:	e9 90 ff ff ff       	jmpq   401020 <.plt>

Disassembly of section .text:

0000000000401090 <_start>:
  401090:	f3 0f 1e fa          	endbr64 
  401094:	31 ed                	xor    %ebp,%ebp
  401096:	49 89 d1             	mov    %rdx,%r9
  401099:	5e                   	pop    %rsi
  40109a:	48 89 e2             	mov    %rsp,%rdx
  40109d:	48 83 e4 f0          	and    $0xfffffffffffffff0,%rsp
  4010a1:	50                   	push   %rax
  4010a2:	54                   	push   %rsp
  4010a3:	49 c7 c0 50 37 40 00 	mov    $0x403750,%r8
  4010aa:	48 c7 c1 e0 36 40 00 	mov    $0x4036e0,%rcx
  4010b1:	48 c7 c7 80 11 40 00 	mov    $0x401180,%rdi
  4010b8:	ff 15 32 4f 00 00    	callq  *0x4f32(%rip)        # 405ff0 <__libc_start_main@GLIBC_2.2.5>
  4010be:	f4                   	hlt    
  4010bf:	90                   	nop

00000000004010c0 <_dl_relocate_static_pie>:
  4010c0:	f3 0f 1e fa          	endbr64 
  4010c4:	c3                   	retq   
  4010c5:	66 2e 0f 1f 84 00 00 	nopw   %cs:0x0(%rax,%rax,1)
  4010cc:	00 00 00 
  4010cf:	90                   	nop

00000000004010d0 <deregister_tm_clones>:
  4010d0:	b8 60 60 40 00       	mov    $0x406060,%eax
  4010d5:	48 3d 60 60 40 00    	cmp    $0x406060,%rax
  4010db:	74 13                	je     4010f0 <deregister_tm_clones+0x20>
  4010dd:	b8 00 00 00 00       	mov    $0x0,%eax
  4010e2:	48 85 c0             	test   %rax,%rax
  4010e5:	74 09                	je     4010f0 <deregister_tm_clones+0x20>
  4010e7:	bf 60 60 40 00       	mov    $0x406060,%edi
  4010ec:	ff e0                	jmpq   *%rax
  4010ee:	66 90                	xchg   %ax,%ax
  4010f0:	c3                   	retq   
  4010f1:	66 66 2e 0f 1f 84 00 	data16 nopw %cs:0x0(%rax,%rax,1)
  4010f8:	00 00 00 00 
  4010fc:	0f 1f 40 00          	nopl   0x0(%rax)

0000000000401100 <register_tm_clones>:
  401100:	be 60 60 40 00       	mov    $0x406060,%esi
  401105:	48 81 ee 60 60 40 00 	sub    $0x406060,%rsi
  40110c:	48 89 f0             	mov    %rsi,%rax
  40110f:	48 c1 ee 3f          	shr    $0x3f,%rsi
  401113:	48 c1 f8 03          	sar    $0x3,%rax
  401117:	48 01 c6             	add    %rax,%rsi
  40111a:	48 d1 fe             	sar    %rsi
  40111d:	74 11                	je     401130 <register_tm_clones+0x30>
  40111f:	b8 00 00 00 00       	mov    $0x0,%eax
  401124:	48 85 c0             	test   %rax,%rax
  401127:	74 07                	je     401130 <register_tm_clones+0x30>
  401129:	bf 60 60 40 00       	mov    $0x406060,%edi
  40112e:	ff e0                	jmpq   *%rax
  401130:	c3                   	retq   
  401131:	66 66 2e 0f 1f 84 00 	data16 nopw %cs:0x0(%rax,%rax,1)
  401138:	00 00 00 00 
  40113c:	0f 1f 40 00          	nopl   0x0(%rax)

0000000000401140 <__do_global_dtors_aux>:
  401140:	f3 0f 1e fa          	endbr64 
  401144:	80 3d 15 4f 00 00 00 	cmpb   $0x0,0x4f15(%rip)        # 406060 <__TMC_END__>
  40114b:	75 13                	jne    401160 <__do_global_dtors_aux+0x20>
  40114d:	55                   	push   %rbp
  40114e:	48 89 e5             	mov    %rsp,%rbp
  401151:	e8 7a ff ff ff       	callq  4010d0 <deregister_tm_clones>
  401156:	c6 05 03 4f 00 00 01 	movb   $0x1,0x4f03(%rip)        # 406060 <__TMC_END__>
  40115d:	5d                   	pop    %rbp
  40115e:	c3                   	retq   
  40115f:	90                   	nop
  401160:	c3                   	retq   
  401161:	66 66 2e 0f 1f 84 00 	data16 nopw %cs:0x0(%rax,%rax,1)
  401168:	00 00 00 00 
  40116c:	0f 1f 40 00          	nopl   0x0(%rax)

0000000000401170 <frame_dummy>:
  401170:	f3 0f 1e fa          	endbr64 
  401174:	eb 8a                	jmp    401100 <register_tm_clones>
  401176:	66 2e 0f 1f 84 00 00 	nopw   %cs:0x0(%rax,%rax,1)
  40117d:	00 00 00 

0000000000401180 <main>:
  401180:	55                   	push   %rbp
  401181:	41 57                	push   %r15
  401183:	41 56                	push   %r14
  401185:	41 55                	push   %r13
  401187:	41 54                	push   %r12
  401189:	53                   	push   %rbx
  40118a:	48 81 ec a8 00 00 00 	sub    $0xa8,%rsp
  401191:	31 db                	xor    %ebx,%ebx
  401193:	31 ff                	xor    %edi,%edi
  401195:	e8 46 24 00 00       	callq  4035e0 <timer_clear>
  40119a:	bf 01 00 00 00       	mov    $0x1,%edi
  40119f:	e8 3c 24 00 00       	callq  4035e0 <timer_clear>
  4011a4:	bf 02 00 00 00       	mov    $0x2,%edi
  4011a9:	e8 32 24 00 00       	callq  4035e0 <timer_clear>
  4011ae:	bf 03 00 00 00       	mov    $0x3,%edi
  4011b3:	e8 28 24 00 00       	callq  4035e0 <timer_clear>
  4011b8:	bf 04 00 00 00       	mov    $0x4,%edi
  4011bd:	e8 1e 24 00 00       	callq  4035e0 <timer_clear>
  4011c2:	bf 05 00 00 00       	mov    $0x5,%edi
  4011c7:	e8 14 24 00 00       	callq  4035e0 <timer_clear>
  4011cc:	bd 06 00 00 00       	mov    $0x6,%ebp
  4011d1:	bf 06 00 00 00       	mov    $0x6,%edi
  4011d6:	e8 05 24 00 00       	callq  4035e0 <timer_clear>
  4011db:	bf a4 42 40 00       	mov    $0x4042a4,%edi
  4011e0:	e8 4b fe ff ff       	callq  401030 <puts@plt>
  4011e5:	c6 05 84 4e d0 00 01 	movb   $0x1,0xd04e84(%rip)        # 1106070 <niter>
  4011ec:	bf c8 41 40 00       	mov    $0x4041c8,%edi
  4011f1:	be 40 00 00 00       	mov    $0x40,%esi
  4011f6:	ba 40 00 00 00       	mov    $0x40,%edx
  4011fb:	b9 40 00 00 00       	mov    $0x40,%ecx
  401200:	31 c0                	xor    %eax,%eax
  401202:	e8 39 fe ff ff       	callq  401040 <printf@plt>
  401207:	80 3d 62 4e d0 00 00 	cmpb   $0x0,0xd04e62(%rip)        # 1106070 <niter>
  40120e:	0f 44 eb             	cmove  %ebx,%ebp
  401211:	bf ec 41 40 00       	mov    $0x4041ec,%edi
  401216:	89 ee                	mov    %ebp,%esi
  401218:	31 c0                	xor    %eax,%eax
  40121a:	e8 21 fe ff ff       	callq  401040 <printf@plt>
  40121f:	c6 05 1a 93 d3 00 01 	movb   $0x1,0xd3931a(%rip)        # 113a540 <dims.0.0>
  401226:	c6 05 23 93 d3 00 01 	movb   $0x1,0xd39323(%rip)        # 113a550 <dims.0.1>
  40122d:	c6 05 24 93 d3 00 01 	movb   $0x1,0xd39324(%rip)        # 113a558 <dims.0.2>
  401234:	c6 05 25 93 d3 00 01 	movb   $0x1,0xd39325(%rip)        # 113a560 <dims.1.0>
  40123b:	c6 05 2e 93 d3 00 01 	movb   $0x1,0xd3932e(%rip)        # 113a570 <dims.1.1>
  401242:	c6 05 2f 93 d3 00 01 	movb   $0x1,0xd3932f(%rip)        # 113a578 <dims.1.2>
  401249:	c6 05 30 93 d3 00 01 	movb   $0x1,0xd39330(%rip)        # 113a580 <dims.2.0>
  401250:	c6 05 31 93 d3 00 01 	movb   $0x1,0xd39331(%rip)        # 113a588 <dims.2.1>
  401257:	c6 05 32 93 d3 00 01 	movb   $0x1,0xd39332(%rip)        # 113a590 <dims.2.2>
  40125e:	c6 05 bb 92 d3 00 01 	movb   $0x1,0xd392bb(%rip)        # 113a520 <xstart.0>
  401265:	c6 05 bc 92 d3 00 01 	movb   $0x1,0xd392bc(%rip)        # 113a528 <xend.0>
  40126c:	c6 05 a5 92 d3 00 01 	movb   $0x1,0xd392a5(%rip)        # 113a518 <ystart.0>
  401273:	c6 05 b2 92 d3 00 01 	movb   $0x1,0xd392b2(%rip)        # 113a52c <yend.0>
  40127a:	c6 05 8f 92 d3 00 01 	movb   $0x1,0xd3928f(%rip)        # 113a510 <zstart.0>
  401281:	c6 05 a8 92 d3 00 01 	movb   $0x1,0xd392a8(%rip)        # 113a530 <zend.0>
  401288:	c6 05 95 92 d3 00 01 	movb   $0x1,0xd39295(%rip)        # 113a524 <xstart.2>
  40128f:	c6 05 86 92 d3 00 01 	movb   $0x1,0xd39286(%rip)        # 113a51c <ystart.2>
  401296:	c6 05 77 92 d3 00 01 	movb   $0x1,0xd39277(%rip)        # 113a514 <zstart.2>
  40129d:	c7 05 f1 92 d3 00 10 	movl   $0x10,0xd392f1(%rip)        # 113a598 <fftblock>
  4012a4:	00 00 00 
  4012a7:	c7 05 e3 92 d3 00 12 	movl   $0x12,0xd392e3(%rip)        # 113a594 <fftblockpad>
  4012ae:	00 00 00 
  4012b1:	b8 70 20 01 01       	mov    $0x1012070,%eax
  4012b6:	66 0f 6f 05 52 2d 00 	movdqa 0x2d52(%rip),%xmm0        # 404010 <_IO_stdin_used+0x10>
  4012bd:	00 
  4012be:	66 0f 6f 0d 5a 2d 00 	movdqa 0x2d5a(%rip),%xmm1        # 404020 <_IO_stdin_used+0x20>
  4012c5:	00 
  4012c6:	66 2e 0f 1f 84 00 00 	nopw   %cs:0x0(%rax,%rax,1)
  4012cd:	00 00 00 
  4012d0:	8d 4b 20             	lea    0x20(%rbx),%ecx
  4012d3:	8d 53 5f             	lea    0x5f(%rbx),%edx
  4012d6:	85 c9                	test   %ecx,%ecx
  4012d8:	0f 49 d1             	cmovns %ecx,%edx
  4012db:	83 e2 c0             	and    $0xffffffc0,%edx
  4012de:	f7 da                	neg    %edx
  4012e0:	8d 0c 13             	lea    (%rbx,%rdx,1),%ecx
  4012e3:	83 c1 20             	add    $0x20,%ecx
  4012e6:	83 c1 e0             	add    $0xffffffe0,%ecx
  4012e9:	0f af c9             	imul   %ecx,%ecx
  4012ec:	48 89 c2             	mov    %rax,%rdx
  4012ef:	31 f6                	xor    %esi,%esi
  4012f1:	66 2e 0f 1f 84 00 00 	nopw   %cs:0x0(%rax,%rax,1)
  4012f8:	00 00 00 
  4012fb:	0f 1f 44 00 00       	nopl   0x0(%rax,%rax,1)
  401300:	8d 7e 20             	lea    0x20(%rsi),%edi
  401303:	8d 6e 5f             	lea    0x5f(%rsi),%ebp
  401306:	85 ff                	test   %edi,%edi
  401308:	0f 49 ef             	cmovns %edi,%ebp
  40130b:	83 e5 c0             	and    $0xffffffc0,%ebp
  40130e:	f7 dd                	neg    %ebp
  401310:	8d 3c 2e             	lea    (%rsi,%rbp,1),%edi
  401313:	83 c7 20             	add    $0x20,%edi
  401316:	83 c7 e0             	add    $0xffffffe0,%edi
  401319:	0f af ff             	imul   %edi,%edi
  40131c:	01 cf                	add    %ecx,%edi
  40131e:	66 0f 6e d7          	movd   %edi,%xmm2
  401322:	66 0f 70 d2 00       	pshufd $0x0,%xmm2,%xmm2
  401327:	31 ff                	xor    %edi,%edi
  401329:	66 0f 6f d8          	movdqa %xmm0,%xmm3
  40132d:	0f 1f 00             	nopl   (%rax)
  401330:	66 0f 6f e3          	movdqa %xmm3,%xmm4
  401334:	66 0f fe e1          	paddd  %xmm1,%xmm4
  401338:	66 0f 6f ec          	movdqa %xmm4,%xmm5
  40133c:	66 0f 72 e5 1f       	psrad  $0x1f,%xmm5
  401341:	66 0f 72 d5 1a       	psrld  $0x1a,%xmm5
  401346:	66 0f fe ec          	paddd  %xmm4,%xmm5
  40134a:	66 0f db 2d de 2c 00 	pand   0x2cde(%rip),%xmm5        # 404030 <_IO_stdin_used+0x30>
  401351:	00 
  401352:	66 0f fa e5          	psubd  %xmm5,%xmm4
  401356:	66 0f fe 25 e2 2c 00 	paddd  0x2ce2(%rip),%xmm4        # 404040 <_IO_stdin_used+0x40>
  40135d:	00 
  40135e:	66 0f 70 ec f5       	pshufd $0xf5,%xmm4,%xmm5
  401363:	66 0f f4 e4          	pmuludq %xmm4,%xmm4
  401367:	66 0f 70 e4 e8       	pshufd $0xe8,%xmm4,%xmm4
  40136c:	66 0f f4 ed          	pmuludq %xmm5,%xmm5
  401370:	66 0f 70 ed e8       	pshufd $0xe8,%xmm5,%xmm5
  401375:	66 0f 62 e5          	punpckldq %xmm5,%xmm4
  401379:	66 0f fe e2          	paddd  %xmm2,%xmm4
  40137d:	66 0f 7e a4 3a 00 40 	movd   %xmm4,-0xc000(%rdx,%rdi,1)
  401384:	ff ff 
  401386:	66 0f 70 ec e5       	pshufd $0xe5,%xmm4,%xmm5
  40138b:	66 0f 7e ac 3a 00 80 	movd   %xmm5,-0x8000(%rdx,%rdi,1)
  401392:	ff ff 
  401394:	66 0f 70 ec 4e       	pshufd $0x4e,%xmm4,%xmm5
  401399:	66 0f 7e ac 3a 00 c0 	movd   %xmm5,-0x4000(%rdx,%rdi,1)
  4013a0:	ff ff 
  4013a2:	66 0f 70 e4 e7       	pshufd $0xe7,%xmm4,%xmm4
  4013a7:	66 0f 7e 24 3a       	movd   %xmm4,(%rdx,%rdi,1)
  4013ac:	66 0f fe 1d 9c 2c 00 	paddd  0x2c9c(%rip),%xmm3        # 404050 <_IO_stdin_used+0x50>
  4013b3:	00 
  4013b4:	48 81 c7 00 00 01 00 	add    $0x10000,%rdi
  4013bb:	48 81 ff 00 00 10 00 	cmp    $0x100000,%rdi
  4013c2:	0f 85 68 ff ff ff    	jne    401330 <main+0x1b0>
  4013c8:	48 83 c6 01          	add    $0x1,%rsi
  4013cc:	48 81 c2 00 01 00 00 	add    $0x100,%rdx
  4013d3:	48 83 fe 40          	cmp    $0x40,%rsi
  4013d7:	0f 85 23 ff ff ff    	jne    401300 <main+0x180>
  4013dd:	48 83 c3 01          	add    $0x1,%rbx
  4013e1:	48 83 c0 04          	add    $0x4,%rax
  4013e5:	48 83 fb 40          	cmp    $0x40,%rbx
  4013e9:	0f 85 e1 fe ff ff    	jne    4012d0 <main+0x150>
  4013ef:	0f 28 05 6a 2c 00 00 	movaps 0x2c6a(%rip),%xmm0        # 404060 <_IO_stdin_used+0x60>
  4013f6:	0f 29 05 83 4c d0 00 	movaps %xmm0,0xd04c83(%rip)        # 1106080 <ex>
  4013fd:	0f 28 05 6c 2c 00 00 	movaps 0x2c6c(%rip),%xmm0        # 404070 <_IO_stdin_used+0x70>
  401404:	0f 29 05 85 4c d0 00 	movaps %xmm0,0xd04c85(%rip)        # 1106090 <ex+0x10>
  40140b:	f2 0f 10 05 fd 2c 00 	movsd  0x2cfd(%rip),%xmm0        # 404110 <_IO_stdin_used+0x110>
  401412:	00 
  401413:	48 c7 c0 18 c0 fd ff 	mov    $0xfffffffffffdc018,%rax
  40141a:	66 0f 1f 44 00 00    	nopw   0x0(%rax,%rax,1)
  401420:	f2 0f 59 05 60 4c d0 	mulsd  0xd04c60(%rip),%xmm0        # 1106088 <ex+0x8>
  401427:	00 
  401428:	f2 0f 11 80 88 a0 12 	movsd  %xmm0,0x112a088(%rax)
  40142f:	01 
  401430:	f2 0f 10 0d 50 4c d0 	movsd  0xd04c50(%rip),%xmm1        # 1106088 <ex+0x8>
  401437:	00 
  401438:	f2 0f 59 c1          	mulsd  %xmm1,%xmm0
  40143c:	f2 0f 11 80 90 a0 12 	movsd  %xmm0,0x112a090(%rax)
  401443:	01 
  401444:	f2 0f 59 c1          	mulsd  %xmm1,%xmm0
  401448:	f2 0f 11 80 98 a0 12 	movsd  %xmm0,0x112a098(%rax)
  40144f:	01 
  401450:	48 83 c0 18          	add    $0x18,%rax
  401454:	75 ca                	jne    401420 <main+0x2a0>
  401456:	e8 15 0d 00 00       	callq  402170 <compute_initial_conditions>
  40145b:	0f b6 05 de 90 d3 00 	movzbl 0xd390de(%rip),%eax        # 113a540 <dims.0.0>
  401462:	41 bf 01 00 00 00    	mov    $0x1,%r15d
  401468:	bb 01 00 00 00       	mov    $0x1,%ebx
  40146d:	83 f8 01             	cmp    $0x1,%eax
  401470:	75 17                	jne    401489 <main+0x309>
  401472:	c1 e0 06             	shl    $0x6,%eax
  401475:	b9 02 00 00 00       	mov    $0x2,%ecx
  40147a:	bb 01 00 00 00       	mov    $0x1,%ebx
  40147f:	90                   	nop
  401480:	01 c9                	add    %ecx,%ecx
  401482:	83 c3 01             	add    $0x1,%ebx
  401485:	39 c1                	cmp    %eax,%ecx
  401487:	7c f7                	jl     401480 <main+0x300>
  401489:	0f 57 c0             	xorps  %xmm0,%xmm0
  40148c:	f2 0f 2a c3          	cvtsi2sd %ebx,%xmm0
  401490:	f2 0f 11 05 08 8c d3 	movsd  %xmm0,0xd38c08(%rip)        # 113a0a0 <u>
  401497:	00 
  401498:	48 c7 05 05 8c d3 00 	movq   $0x0,0xd38c05(%rip)        # 113a0a8 <u+0x8>
  40149f:	00 00 00 00 
  4014a3:	bd 01 00 00 00       	mov    $0x1,%ebp
  4014a8:	41 bc 01 00 00 00    	mov    $0x1,%r12d
  4014ae:	eb 16                	jmp    4014c6 <main+0x346>
  4014b0:	41 01 ef             	add    %ebp,%r15d
  4014b3:	01 ed                	add    %ebp,%ebp
  4014b5:	41 8d 44 24 01       	lea    0x1(%r12),%eax
  4014ba:	41 39 dc             	cmp    %ebx,%r12d
  4014bd:	41 89 c4             	mov    %eax,%r12d
  4014c0:	0f 84 3d 01 00 00    	je     401603 <main+0x483>
  4014c6:	85 ed                	test   %ebp,%ebp
  4014c8:	74 e6                	je     4014b0 <main+0x330>
  4014ca:	0f 57 c0             	xorps  %xmm0,%xmm0
  4014cd:	f2 0f 2a c5          	cvtsi2sd %ebp,%xmm0
  4014d1:	f2 0f 10 0d 3f 2c 00 	movsd  0x2c3f(%rip),%xmm1        # 404118 <_IO_stdin_used+0x118>
  4014d8:	00 
  4014d9:	f2 0f 5e c8          	divsd  %xmm0,%xmm1
  4014dd:	49 63 c7             	movslq %r15d,%rax
  4014e0:	41 89 ed             	mov    %ebp,%r13d
  4014e3:	44 89 e9             	mov    %r13d,%ecx
  4014e6:	83 e1 01             	and    $0x1,%ecx
  4014e9:	83 fd 01             	cmp    $0x1,%ebp
  4014ec:	48 89 44 24 20       	mov    %rax,0x20(%rsp)
  4014f1:	75 0d                	jne    401500 <main+0x380>
  4014f3:	45 31 f6             	xor    %r14d,%r14d
  4014f6:	48 85 c9             	test   %rcx,%rcx
  4014f9:	74 b5                	je     4014b0 <main+0x330>
  4014fb:	e9 ba 00 00 00       	jmpq   4015ba <main+0x43a>
  401500:	4c 89 64 24 18       	mov    %r12,0x18(%rsp)
  401505:	48 c1 e0 04          	shl    $0x4,%rax
  401509:	4c 8d a0 b8 a0 13 01 	lea    0x113a0b8(%rax),%r12
  401510:	48 89 4c 24 28       	mov    %rcx,0x28(%rsp)
  401515:	49 29 cd             	sub    %rcx,%r13
  401518:	45 31 f6             	xor    %r14d,%r14d
  40151b:	f2 0f 11 4c 24 08    	movsd  %xmm1,0x8(%rsp)
  401521:	66 2e 0f 1f 84 00 00 	nopw   %cs:0x0(%rax,%rax,1)
  401528:	00 00 00 
  40152b:	0f 1f 44 00 00       	nopl   0x0(%rax,%rax,1)
  401530:	0f 57 c0             	xorps  %xmm0,%xmm0
  401533:	f2 41 0f 2a c6       	cvtsi2sd %r14d,%xmm0
  401538:	f2 0f 59 c1          	mulsd  %xmm1,%xmm0
  40153c:	f2 0f 11 44 24 10    	movsd  %xmm0,0x10(%rsp)
  401542:	e8 19 fb ff ff       	callq  401060 <cos@plt>
  401547:	f2 41 0f 11 44 24 e8 	movsd  %xmm0,-0x18(%r12)
  40154e:	f2 0f 10 44 24 10    	movsd  0x10(%rsp),%xmm0
  401554:	e8 17 fb ff ff       	callq  401070 <sin@plt>
  401559:	f2 41 0f 11 44 24 f0 	movsd  %xmm0,-0x10(%r12)
  401560:	41 8d 46 01          	lea    0x1(%r14),%eax
  401564:	0f 57 c0             	xorps  %xmm0,%xmm0
  401567:	f2 0f 2a c0          	cvtsi2sd %eax,%xmm0
  40156b:	f2 0f 59 44 24 08    	mulsd  0x8(%rsp),%xmm0
  401571:	f2 0f 11 44 24 10    	movsd  %xmm0,0x10(%rsp)
  401577:	e8 e4 fa ff ff       	callq  401060 <cos@plt>
  40157c:	f2 41 0f 11 44 24 f8 	movsd  %xmm0,-0x8(%r12)
  401583:	f2 0f 10 44 24 10    	movsd  0x10(%rsp),%xmm0
  401589:	e8 e2 fa ff ff       	callq  401070 <sin@plt>
  40158e:	f2 0f 10 4c 24 08    	movsd  0x8(%rsp),%xmm1
  401594:	f2 41 0f 11 04 24    	movsd  %xmm0,(%r12)
  40159a:	49 83 c6 02          	add    $0x2,%r14
  40159e:	49 83 c4 20          	add    $0x20,%r12
  4015a2:	4d 39 f5             	cmp    %r14,%r13
  4015a5:	75 89                	jne    401530 <main+0x3b0>
  4015a7:	4c 8b 64 24 18       	mov    0x18(%rsp),%r12
  4015ac:	48 8b 4c 24 28       	mov    0x28(%rsp),%rcx
  4015b1:	48 85 c9             	test   %rcx,%rcx
  4015b4:	0f 84 f6 fe ff ff    	je     4014b0 <main+0x330>
  4015ba:	0f 57 c0             	xorps  %xmm0,%xmm0
  4015bd:	f2 41 0f 2a c6       	cvtsi2sd %r14d,%xmm0
  4015c2:	f2 0f 59 c8          	mulsd  %xmm0,%xmm1
  4015c6:	f2 0f 11 4c 24 08    	movsd  %xmm1,0x8(%rsp)
  4015cc:	66 0f 28 c1          	movapd %xmm1,%xmm0
  4015d0:	e8 8b fa ff ff       	callq  401060 <cos@plt>
  4015d5:	4c 8b 6c 24 20       	mov    0x20(%rsp),%r13
  4015da:	4d 01 f5             	add    %r14,%r13
  4015dd:	49 c1 e5 04          	shl    $0x4,%r13
  4015e1:	f2 41 0f 11 85 a0 a0 	movsd  %xmm0,0x113a0a0(%r13)
  4015e8:	13 01 
  4015ea:	f2 0f 10 44 24 08    	movsd  0x8(%rsp),%xmm0
  4015f0:	e8 7b fa ff ff       	callq  401070 <sin@plt>
  4015f5:	f2 41 0f 11 85 a8 a0 	movsd  %xmm0,0x113a0a8(%r13)
  4015fc:	13 01 
  4015fe:	e9 ad fe ff ff       	jmpq   4014b0 <main+0x330>
  401603:	be 70 60 80 00       	mov    $0x806070,%esi
  401608:	bf 01 00 00 00       	mov    $0x1,%edi
  40160d:	e8 ce 0d 00 00       	callq  4023e0 <cffts1>
  401612:	bf 01 00 00 00       	mov    $0x1,%edi
  401617:	e8 44 10 00 00       	callq  402660 <cffts2>
  40161c:	be 70 60 40 00       	mov    $0x406070,%esi
  401621:	bf 01 00 00 00       	mov    $0x1,%edi
  401626:	e8 b5 13 00 00       	callq  4029e0 <cffts3>
  40162b:	31 ff                	xor    %edi,%edi
  40162d:	e8 ae 1f 00 00       	callq  4035e0 <timer_clear>
  401632:	bf 01 00 00 00       	mov    $0x1,%edi
  401637:	e8 a4 1f 00 00       	callq  4035e0 <timer_clear>
  40163c:	bf 02 00 00 00       	mov    $0x2,%edi
  401641:	e8 9a 1f 00 00       	callq  4035e0 <timer_clear>
  401646:	bf 03 00 00 00       	mov    $0x3,%edi
  40164b:	e8 90 1f 00 00       	callq  4035e0 <timer_clear>
  401650:	bf 04 00 00 00       	mov    $0x4,%edi
  401655:	e8 86 1f 00 00       	callq  4035e0 <timer_clear>
  40165a:	bf 05 00 00 00       	mov    $0x5,%edi
  40165f:	e8 7c 1f 00 00       	callq  4035e0 <timer_clear>
  401664:	bf 06 00 00 00       	mov    $0x6,%edi
  401669:	e8 72 1f 00 00       	callq  4035e0 <timer_clear>
  40166e:	31 ff                	xor    %edi,%edi
  401670:	e8 7b 1f 00 00       	callq  4035f0 <timer_start>
  401675:	8a 05 05 8f d3 00    	mov    0xd38f05(%rip),%al        # 113a580 <dims.2.0>
  40167b:	3c 01                	cmp    $0x1,%al
  40167d:	66 0f 6f 35 ab 29 00 	movdqa 0x29ab(%rip),%xmm6        # 404030 <_IO_stdin_used+0x30>
  401684:	00 
  401685:	66 0f 6f 3d b3 29 00 	movdqa 0x29b3(%rip),%xmm7        # 404040 <_IO_stdin_used+0x40>
  40168c:	00 
  40168d:	66 0f 6f 0d bb 29 00 	movdqa 0x29bb(%rip),%xmm1        # 404050 <_IO_stdin_used+0x50>
  401694:	00 
  401695:	0f 85 0b 02 00 00    	jne    4018a6 <main+0x726>
  40169b:	80 3d e6 8e d3 00 01 	cmpb   $0x1,0xd38ee6(%rip)        # 113a588 <dims.2.1>
  4016a2:	0f 85 fe 01 00 00    	jne    4018a6 <main+0x726>
  4016a8:	44 8a 3d e1 8e d3 00 	mov    0xd38ee1(%rip),%r15b        # 113a590 <dims.2.2>
  4016af:	41 f6 c7 01          	test   $0x1,%r15b
  4016b3:	0f 84 ed 01 00 00    	je     4018a6 <main+0x726>
  4016b9:	44 0f b6 25 53 8e d3 	movzbl 0xd38e53(%rip),%r12d        # 113a514 <zstart.2>
  4016c0:	00 
  4016c1:	0f b6 15 54 8e d3 00 	movzbl 0xd38e54(%rip),%edx        # 113a51c <ystart.2>
  4016c8:	0f b6 0d 55 8e d3 00 	movzbl 0xd38e55(%rip),%ecx        # 113a524 <xstart.2>
  4016cf:	0f b6 c0             	movzbl %al,%eax
  4016d2:	48 c1 e0 06          	shl    $0x6,%rax
  4016d6:	48 89 44 24 18       	mov    %rax,0x18(%rsp)
  4016db:	45 0f b6 ef          	movzbl %r15b,%r13d
  4016df:	41 83 e5 01          	and    $0x1,%r13d
  4016e3:	49 c1 e5 06          	shl    $0x6,%r13
  4016e7:	83 c1 1f             	add    $0x1f,%ecx
  4016ea:	48 89 4c 24 20       	mov    %rcx,0x20(%rsp)
  4016ef:	83 c2 1f             	add    $0x1f,%edx
  4016f2:	41 83 c4 1f          	add    $0x1f,%r12d
  4016f6:	66 41 0f 6e c4       	movd   %r12d,%xmm0
  4016fb:	66 0f 70 c0 00       	pshufd $0x0,%xmm0,%xmm0
  401700:	41 ba 70 60 00 01    	mov    $0x1006070,%r10d
  401706:	bd 70 20 01 01       	mov    $0x1012070,%ebp
  40170b:	45 31 f6             	xor    %r14d,%r14d
  40170e:	66 44 0f 6f 05 f9 28 	movdqa 0x28f9(%rip),%xmm8        # 404010 <_IO_stdin_used+0x10>
  401715:	00 00 
  401717:	eb 28                	jmp    401741 <main+0x5c1>
  401719:	0f 1f 80 00 00 00 00 	nopl   0x0(%rax)
  401720:	49 83 c6 01          	add    $0x1,%r14
  401724:	4c 8b 54 24 08       	mov    0x8(%rsp),%r10
  401729:	49 83 c2 04          	add    $0x4,%r10
  40172d:	48 8b 6c 24 10       	mov    0x10(%rsp),%rbp
  401732:	48 83 c5 04          	add    $0x4,%rbp
  401736:	4c 3b 74 24 18       	cmp    0x18(%rsp),%r14
  40173b:	0f 84 65 01 00 00    	je     4018a6 <main+0x726>
  401741:	48 8b 44 24 20       	mov    0x20(%rsp),%rax
  401746:	41 89 c3             	mov    %eax,%r11d
  401749:	45 01 f3             	add    %r14d,%r11d
  40174c:	42 8d 44 30 3f       	lea    0x3f(%rax,%r14,1),%eax
  401751:	41 0f 49 c3          	cmovns %r11d,%eax
  401755:	83 e0 c0             	and    $0xffffffc0,%eax
  401758:	41 29 c3             	sub    %eax,%r11d
  40175b:	41 83 c3 e0          	add    $0xffffffe0,%r11d
  40175f:	45 0f af db          	imul   %r11d,%r11d
  401763:	48 89 6c 24 10       	mov    %rbp,0x10(%rsp)
  401768:	4c 89 54 24 08       	mov    %r10,0x8(%rsp)
  40176d:	31 c0                	xor    %eax,%eax
  40176f:	eb 27                	jmp    401798 <main+0x618>
  401771:	66 2e 0f 1f 84 00 00 	nopw   %cs:0x0(%rax,%rax,1)
  401778:	00 00 00 
  40177b:	0f 1f 44 00 00       	nopl   0x0(%rax,%rax,1)
  401780:	48 83 c0 01          	add    $0x1,%rax
  401784:	49 81 c2 00 01 00 00 	add    $0x100,%r10
  40178b:	48 81 c5 00 01 00 00 	add    $0x100,%rbp
  401792:	48 83 f8 40          	cmp    $0x40,%rax
  401796:	74 88                	je     401720 <main+0x5a0>
  401798:	89 d1                	mov    %edx,%ecx
  40179a:	01 c1                	add    %eax,%ecx
  40179c:	8d 74 02 3f          	lea    0x3f(%rdx,%rax,1),%esi
  4017a0:	0f 49 f1             	cmovns %ecx,%esi
  4017a3:	83 e6 c0             	and    $0xffffffc0,%esi
  4017a6:	29 f1                	sub    %esi,%ecx
  4017a8:	83 c1 e0             	add    $0xffffffe0,%ecx
  4017ab:	0f af c9             	imul   %ecx,%ecx
  4017ae:	44 01 d9             	add    %r11d,%ecx
  4017b1:	4c 89 ef             	mov    %r13,%rdi
  4017b4:	45 89 e0             	mov    %r12d,%r8d
  4017b7:	4c 89 d6             	mov    %r10,%rsi
  4017ba:	41 f6 c7 01          	test   $0x1,%r15b
  4017be:	0f 84 ac 00 00 00    	je     401870 <main+0x6f0>
  4017c4:	66 0f 6e d1          	movd   %ecx,%xmm2
  4017c8:	66 0f 70 d2 00       	pshufd $0x0,%xmm2,%xmm2
  4017cd:	4c 89 e9             	mov    %r13,%rcx
  4017d0:	48 89 ef             	mov    %rbp,%rdi
  4017d3:	66 41 0f 6f d8       	movdqa %xmm8,%xmm3
  4017d8:	0f 1f 84 00 00 00 00 	nopl   0x0(%rax,%rax,1)
  4017df:	00 
  4017e0:	66 0f 6f e0          	movdqa %xmm0,%xmm4
  4017e4:	66 0f fe e3          	paddd  %xmm3,%xmm4
  4017e8:	66 0f 6f ec          	movdqa %xmm4,%xmm5
  4017ec:	66 0f 72 e5 1f       	psrad  $0x1f,%xmm5
  4017f1:	66 0f 72 d5 1a       	psrld  $0x1a,%xmm5
  4017f6:	66 0f fe ec          	paddd  %xmm4,%xmm5
  4017fa:	66 0f db ee          	pand   %xmm6,%xmm5
  4017fe:	66 0f fa e5          	psubd  %xmm5,%xmm4
  401802:	66 0f fe e7          	paddd  %xmm7,%xmm4
  401806:	66 0f 70 ec f5       	pshufd $0xf5,%xmm4,%xmm5
  40180b:	66 0f f4 e4          	pmuludq %xmm4,%xmm4
  40180f:	66 0f 70 e4 e8       	pshufd $0xe8,%xmm4,%xmm4
  401814:	66 0f f4 ed          	pmuludq %xmm5,%xmm5
  401818:	66 0f 70 ed e8       	pshufd $0xe8,%xmm5,%xmm5
  40181d:	66 0f 62 e5          	punpckldq %xmm5,%xmm4
  401821:	66 0f fe e2          	paddd  %xmm2,%xmm4
  401825:	66 0f 7e a7 00 40 ff 	movd   %xmm4,-0xc000(%rdi)
  40182c:	ff 
  40182d:	66 0f 70 ec e5       	pshufd $0xe5,%xmm4,%xmm5
  401832:	66 0f 7e af 00 80 ff 	movd   %xmm5,-0x8000(%rdi)
  401839:	ff 
  40183a:	66 0f 70 ec 4e       	pshufd $0x4e,%xmm4,%xmm5
  40183f:	66 0f 7e af 00 c0 ff 	movd   %xmm5,-0x4000(%rdi)
  401846:	ff 
  401847:	66 0f 70 e4 e7       	pshufd $0xe7,%xmm4,%xmm4
  40184c:	66 0f 7e 27          	movd   %xmm4,(%rdi)
  401850:	66 0f fe d9          	paddd  %xmm1,%xmm3
  401854:	48 81 c7 00 00 01 00 	add    $0x10000,%rdi
  40185b:	48 83 c1 fc          	add    $0xfffffffffffffffc,%rcx
  40185f:	0f 85 7b ff ff ff    	jne    4017e0 <main+0x660>
  401865:	e9 16 ff ff ff       	jmpq   401780 <main+0x600>
  40186a:	66 0f 1f 44 00 00    	nopw   0x0(%rax,%rax,1)
  401870:	45 8d 48 3f          	lea    0x3f(%r8),%r9d
  401874:	45 85 c0             	test   %r8d,%r8d
  401877:	45 0f 49 c8          	cmovns %r8d,%r9d
  40187b:	41 83 e1 c0          	and    $0xffffffc0,%r9d
  40187f:	41 f7 d9             	neg    %r9d
  401882:	43 8d 1c 08          	lea    (%r8,%r9,1),%ebx
  401886:	83 c3 e0             	add    $0xffffffe0,%ebx
  401889:	0f af db             	imul   %ebx,%ebx
  40188c:	01 cb                	add    %ecx,%ebx
  40188e:	89 1e                	mov    %ebx,(%rsi)
  401890:	48 81 c6 00 40 00 00 	add    $0x4000,%rsi
  401897:	41 83 c0 01          	add    $0x1,%r8d
  40189b:	48 83 c7 ff          	add    $0xffffffffffffffff,%rdi
  40189f:	75 cf                	jne    401870 <main+0x6f0>
  4018a1:	e9 da fe ff ff       	jmpq   401780 <main+0x600>
  4018a6:	0f 28 05 b3 27 00 00 	movaps 0x27b3(%rip),%xmm0        # 404060 <_IO_stdin_used+0x60>
  4018ad:	0f 29 05 cc 47 d0 00 	movaps %xmm0,0xd047cc(%rip)        # 1106080 <ex>
  4018b4:	0f 28 05 b5 27 00 00 	movaps 0x27b5(%rip),%xmm0        # 404070 <_IO_stdin_used+0x70>
  4018bb:	0f 29 05 ce 47 d0 00 	movaps %xmm0,0xd047ce(%rip)        # 1106090 <ex+0x10>
  4018c2:	f2 0f 10 05 46 28 00 	movsd  0x2846(%rip),%xmm0        # 404110 <_IO_stdin_used+0x110>
  4018c9:	00 
  4018ca:	48 c7 c0 18 c0 fd ff 	mov    $0xfffffffffffdc018,%rax
  4018d1:	66 2e 0f 1f 84 00 00 	nopw   %cs:0x0(%rax,%rax,1)
  4018d8:	00 00 00 
  4018db:	0f 1f 44 00 00       	nopl   0x0(%rax,%rax,1)
  4018e0:	f2 0f 59 05 a0 47 d0 	mulsd  0xd047a0(%rip),%xmm0        # 1106088 <ex+0x8>
  4018e7:	00 
  4018e8:	f2 0f 11 80 88 a0 12 	movsd  %xmm0,0x112a088(%rax)
  4018ef:	01 
  4018f0:	f2 0f 10 0d 90 47 d0 	movsd  0xd04790(%rip),%xmm1        # 1106088 <ex+0x8>
  4018f7:	00 
  4018f8:	f2 0f 59 c1          	mulsd  %xmm1,%xmm0
  4018fc:	f2 0f 11 80 90 a0 12 	movsd  %xmm0,0x112a090(%rax)
  401903:	01 
  401904:	f2 0f 59 c1          	mulsd  %xmm1,%xmm0
  401908:	f2 0f 11 80 98 a0 12 	movsd  %xmm0,0x112a098(%rax)
  40190f:	01 
  401910:	48 83 c0 18          	add    $0x18,%rax
  401914:	75 ca                	jne    4018e0 <main+0x760>
  401916:	e8 55 08 00 00       	callq  402170 <compute_initial_conditions>
  40191b:	0f b6 05 1e 8c d3 00 	movzbl 0xd38c1e(%rip),%eax        # 113a540 <dims.0.0>
  401922:	41 bf 01 00 00 00    	mov    $0x1,%r15d
  401928:	bb 01 00 00 00       	mov    $0x1,%ebx
  40192d:	83 f8 01             	cmp    $0x1,%eax
  401930:	75 17                	jne    401949 <main+0x7c9>
  401932:	c1 e0 06             	shl    $0x6,%eax
  401935:	b9 02 00 00 00       	mov    $0x2,%ecx
  40193a:	bb 01 00 00 00       	mov    $0x1,%ebx
  40193f:	90                   	nop
  401940:	01 c9                	add    %ecx,%ecx
  401942:	83 c3 01             	add    $0x1,%ebx
  401945:	39 c1                	cmp    %eax,%ecx
  401947:	7c f7                	jl     401940 <main+0x7c0>
  401949:	0f 57 c0             	xorps  %xmm0,%xmm0
  40194c:	f2 0f 2a c3          	cvtsi2sd %ebx,%xmm0
  401950:	f2 0f 11 05 48 87 d3 	movsd  %xmm0,0xd38748(%rip)        # 113a0a0 <u>
  401957:	00 
  401958:	48 c7 05 45 87 d3 00 	movq   $0x0,0xd38745(%rip)        # 113a0a8 <u+0x8>
  40195f:	00 00 00 00 
  401963:	bd 01 00 00 00       	mov    $0x1,%ebp
  401968:	41 bc 01 00 00 00    	mov    $0x1,%r12d
  40196e:	eb 16                	jmp    401986 <main+0x806>
  401970:	41 01 ef             	add    %ebp,%r15d
  401973:	01 ed                	add    %ebp,%ebp
  401975:	41 8d 44 24 01       	lea    0x1(%r12),%eax
  40197a:	41 39 dc             	cmp    %ebx,%r12d
  40197d:	41 89 c4             	mov    %eax,%r12d
  401980:	0f 84 3d 01 00 00    	je     401ac3 <main+0x943>
  401986:	85 ed                	test   %ebp,%ebp
  401988:	74 e6                	je     401970 <main+0x7f0>
  40198a:	0f 57 c0             	xorps  %xmm0,%xmm0
  40198d:	f2 0f 2a c5          	cvtsi2sd %ebp,%xmm0
  401991:	f2 0f 10 0d 7f 27 00 	movsd  0x277f(%rip),%xmm1        # 404118 <_IO_stdin_used+0x118>
  401998:	00 
  401999:	f2 0f 5e c8          	divsd  %xmm0,%xmm1
  40199d:	49 63 c7             	movslq %r15d,%rax
  4019a0:	41 89 ed             	mov    %ebp,%r13d
  4019a3:	44 89 e9             	mov    %r13d,%ecx
  4019a6:	83 e1 01             	and    $0x1,%ecx
  4019a9:	83 fd 01             	cmp    $0x1,%ebp
  4019ac:	48 89 44 24 20       	mov    %rax,0x20(%rsp)
  4019b1:	75 0d                	jne    4019c0 <main+0x840>
  4019b3:	45 31 f6             	xor    %r14d,%r14d
  4019b6:	48 85 c9             	test   %rcx,%rcx
  4019b9:	74 b5                	je     401970 <main+0x7f0>
  4019bb:	e9 ba 00 00 00       	jmpq   401a7a <main+0x8fa>
  4019c0:	4c 89 64 24 18       	mov    %r12,0x18(%rsp)
  4019c5:	48 c1 e0 04          	shl    $0x4,%rax
  4019c9:	4c 8d a0 b8 a0 13 01 	lea    0x113a0b8(%rax),%r12
  4019d0:	48 89 4c 24 28       	mov    %rcx,0x28(%rsp)
  4019d5:	49 29 cd             	sub    %rcx,%r13
  4019d8:	45 31 f6             	xor    %r14d,%r14d
  4019db:	f2 0f 11 4c 24 08    	movsd  %xmm1,0x8(%rsp)
  4019e1:	66 2e 0f 1f 84 00 00 	nopw   %cs:0x0(%rax,%rax,1)
  4019e8:	00 00 00 
  4019eb:	0f 1f 44 00 00       	nopl   0x0(%rax,%rax,1)
  4019f0:	0f 57 c0             	xorps  %xmm0,%xmm0
  4019f3:	f2 41 0f 2a c6       	cvtsi2sd %r14d,%xmm0
  4019f8:	f2 0f 59 c1          	mulsd  %xmm1,%xmm0
  4019fc:	f2 0f 11 44 24 10    	movsd  %xmm0,0x10(%rsp)
  401a02:	e8 59 f6 ff ff       	callq  401060 <cos@plt>
  401a07:	f2 41 0f 11 44 24 e8 	movsd  %xmm0,-0x18(%r12)
  401a0e:	f2 0f 10 44 24 10    	movsd  0x10(%rsp),%xmm0
  401a14:	e8 57 f6 ff ff       	callq  401070 <sin@plt>
  401a19:	f2 41 0f 11 44 24 f0 	movsd  %xmm0,-0x10(%r12)
  401a20:	41 8d 46 01          	lea    0x1(%r14),%eax
  401a24:	0f 57 c0             	xorps  %xmm0,%xmm0
  401a27:	f2 0f 2a c0          	cvtsi2sd %eax,%xmm0
  401a2b:	f2 0f 59 44 24 08    	mulsd  0x8(%rsp),%xmm0
  401a31:	f2 0f 11 44 24 10    	movsd  %xmm0,0x10(%rsp)
  401a37:	e8 24 f6 ff ff       	callq  401060 <cos@plt>
  401a3c:	f2 41 0f 11 44 24 f8 	movsd  %xmm0,-0x8(%r12)
  401a43:	f2 0f 10 44 24 10    	movsd  0x10(%rsp),%xmm0
  401a49:	e8 22 f6 ff ff       	callq  401070 <sin@plt>
  401a4e:	f2 0f 10 4c 24 08    	movsd  0x8(%rsp),%xmm1
  401a54:	f2 41 0f 11 04 24    	movsd  %xmm0,(%r12)
  401a5a:	49 83 c6 02          	add    $0x2,%r14
  401a5e:	49 83 c4 20          	add    $0x20,%r12
  401a62:	4d 39 f5             	cmp    %r14,%r13
  401a65:	75 89                	jne    4019f0 <main+0x870>
  401a67:	4c 8b 64 24 18       	mov    0x18(%rsp),%r12
  401a6c:	48 8b 4c 24 28       	mov    0x28(%rsp),%rcx
  401a71:	48 85 c9             	test   %rcx,%rcx
  401a74:	0f 84 f6 fe ff ff    	je     401970 <main+0x7f0>
  401a7a:	0f 57 c0             	xorps  %xmm0,%xmm0
  401a7d:	f2 41 0f 2a c6       	cvtsi2sd %r14d,%xmm0
  401a82:	f2 0f 59 c8          	mulsd  %xmm0,%xmm1
  401a86:	f2 0f 11 4c 24 08    	movsd  %xmm1,0x8(%rsp)
  401a8c:	66 0f 28 c1          	movapd %xmm1,%xmm0
  401a90:	e8 cb f5 ff ff       	callq  401060 <cos@plt>
  401a95:	4c 8b 6c 24 20       	mov    0x20(%rsp),%r13
  401a9a:	4d 01 f5             	add    %r14,%r13
  401a9d:	49 c1 e5 04          	shl    $0x4,%r13
  401aa1:	f2 41 0f 11 85 a0 a0 	movsd  %xmm0,0x113a0a0(%r13)
  401aa8:	13 01 
  401aaa:	f2 0f 10 44 24 08    	movsd  0x8(%rsp),%xmm0
  401ab0:	e8 bb f5 ff ff       	callq  401070 <sin@plt>
  401ab5:	f2 41 0f 11 85 a8 a0 	movsd  %xmm0,0x113a0a8(%r13)
  401abc:	13 01 
  401abe:	e9 ad fe ff ff       	jmpq   401970 <main+0x7f0>
  401ac3:	be 70 60 80 00       	mov    $0x806070,%esi
  401ac8:	bf 01 00 00 00       	mov    $0x1,%edi
  401acd:	e8 0e 09 00 00       	callq  4023e0 <cffts1>
  401ad2:	bf 01 00 00 00       	mov    $0x1,%edi
  401ad7:	e8 84 0b 00 00       	callq  402660 <cffts2>
  401adc:	be 70 60 40 00       	mov    $0x406070,%esi
  401ae1:	bf 01 00 00 00       	mov    $0x1,%edi
  401ae6:	e8 f5 0e 00 00       	callq  4029e0 <cffts3>
  401aeb:	80 3d 7e 45 d0 00 01 	cmpb   $0x1,0xd0457e(%rip)        # 1106070 <niter>
  401af2:	0f 85 d4 02 00 00    	jne    401dcc <bounds_ok2+0x149>
  401af8:	41 be 01 00 00 00    	mov    $0x1,%r14d
  401afe:	eb 59                	jmp    401b59 <main+0x9d9>
  401b00:	4c 89 f0             	mov    %r14,%rax
  401b03:	48 c1 e0 04          	shl    $0x4,%rax
  401b07:	66 0f 58 80 a0 a4 13 	addpd  0x113a4a0(%rax),%xmm0
  401b0e:	01 
  401b0f:	66 0f 59 05 69 25 00 	mulpd  0x2569(%rip),%xmm0        # 404080 <_IO_stdin_used+0x80>
  401b16:	00 
  401b17:	66 0f 29 80 a0 a4 13 	movapd %xmm0,0x113a4a0(%rax)
  401b1e:	01 
  401b1f:	66 0f 28 c8          	movapd %xmm0,%xmm1
  401b23:	66 0f 15 c8          	unpckhpd %xmm0,%xmm1
  401b27:	bf 6f 42 40 00       	mov    $0x40426f,%edi
  401b2c:	44 89 f6             	mov    %r14d,%esi
  401b2f:	b0 02                	mov    $0x2,%al
  401b31:	e8 0a f5 ff ff       	callq  401040 <printf@plt>
  401b36:	8a 05 34 45 d0 00    	mov    0xd04534(%rip),%al        # 1106070 <niter>
  401b3c:	84 c0                	test   %al,%al
  401b3e:	b9 00 00 00 00       	mov    $0x0,%ecx
  401b43:	ba 06 00 00 00       	mov    $0x6,%edx
  401b48:	48 0f 45 ca          	cmovne %rdx,%rcx
  401b4c:	49 39 ce             	cmp    %rcx,%r14
  401b4f:	4d 8d 76 01          	lea    0x1(%r14),%r14
  401b53:	0f 83 75 02 00 00    	jae    401dce <bounds_ok2+0x14b>
  401b59:	31 c0                	xor    %eax,%eax
  401b5b:	e8 10 1b 00 00       	callq  403670 <region_lower_bound>
  401b60:	49 89 c4             	mov    %rax,%r12
  401b63:	31 c0                	xor    %eax,%eax
  401b65:	e8 16 1b 00 00       	callq  403680 <region_upper_bound>
  401b6a:	80 3d e7 89 d3 00 01 	cmpb   $0x1,0xd389e7(%rip)        # 113a558 <dims.0.2>
  401b71:	0f 85 59 01 00 00    	jne    401cd0 <bounds_ok2+0x4d>
  401b77:	44 0f b6 2d d1 89 d3 	movzbl 0xd389d1(%rip),%r13d        # 113a550 <dims.0.1>
  401b7e:	00 
  401b7f:	41 c1 e5 06          	shl    $0x6,%r13d
  401b83:	b9 40 00 00 00       	mov    $0x40,%ecx
  401b88:	be 70 60 00 01       	mov    $0x1006070,%esi
  401b8d:	41 b9 70 60 40 00    	mov    $0x406070,%r9d
  401b93:	41 bf 70 60 80 00    	mov    $0x806070,%r15d
  401b99:	45 31 db             	xor    %r11d,%r11d
  401b9c:	eb 3b                	jmp    401bd9 <main+0xa59>
  401b9e:	66 90                	xchg   %ax,%ax
  401ba0:	0f b6 0d b1 89 d3 00 	movzbl 0xd389b1(%rip),%ecx        # 113a558 <dims.0.2>
  401ba7:	c1 e1 06             	shl    $0x6,%ecx
  401baa:	48 8b 74 24 08       	mov    0x8(%rsp),%rsi
  401baf:	4c 8b 4c 24 10       	mov    0x10(%rsp),%r9
  401bb4:	49 83 c3 01          	add    $0x1,%r11
  401bb8:	48 63 d1             	movslq %ecx,%rdx
  401bbb:	48 81 c6 00 40 00 00 	add    $0x4000,%rsi
  401bc2:	49 81 c1 00 00 01 00 	add    $0x10000,%r9
  401bc9:	49 81 c7 00 00 01 00 	add    $0x10000,%r15
  401bd0:	49 39 d3             	cmp    %rdx,%r11
  401bd3:	0f 8d f7 00 00 00    	jge    401cd0 <bounds_ok2+0x4d>
  401bd9:	45 85 ed             	test   %r13d,%r13d
  401bdc:	7e d6                	jle    401bb4 <main+0xa34>
  401bde:	0f b6 2d 5b 89 d3 00 	movzbl 0xd3895b(%rip),%ebp        # 113a540 <dims.0.0>
  401be5:	c1 e5 06             	shl    $0x6,%ebp
  401be8:	4d 89 fa             	mov    %r15,%r10
  401beb:	4c 89 4c 24 10       	mov    %r9,0x10(%rsp)
  401bf0:	48 89 74 24 08       	mov    %rsi,0x8(%rsp)
  401bf5:	48 89 f1             	mov    %rsi,%rcx
  401bf8:	45 31 c0             	xor    %r8d,%r8d
  401bfb:	eb 28                	jmp    401c25 <main+0xaa5>
  401bfd:	0f 1f 00             	nopl   (%rax)
  401c00:	49 83 c0 01          	add    $0x1,%r8
  401c04:	49 63 d5             	movslq %r13d,%rdx
  401c07:	48 81 c1 00 01 00 00 	add    $0x100,%rcx
  401c0e:	49 81 c1 00 04 00 00 	add    $0x400,%r9
  401c15:	49 81 c2 00 04 00 00 	add    $0x400,%r10
  401c1c:	49 39 d0             	cmp    %rdx,%r8
  401c1f:	0f 8d 7b ff ff ff    	jge    401ba0 <main+0xa20>
  401c25:	85 ed                	test   %ebp,%ebp
  401c27:	7e d7                	jle    401c00 <main+0xa80>
  401c29:	4c 89 d6             	mov    %r10,%rsi
  401c2c:	4c 89 ca             	mov    %r9,%rdx
  401c2f:	31 ff                	xor    %edi,%edi
  401c31:	66 2e 0f 1f 84 00 00 	nopw   %cs:0x0(%rax,%rax,1)
  401c38:	00 00 00 
  401c3b:	0f 1f 44 00 00       	nopl   0x0(%rax,%rax,1)
  401c40:	48 39 c6             	cmp    %rax,%rsi
  401c43:	3e 76 02             	jbe,pt 401c48 <ub_ok0>
  401c46:	0f 0b                	ud2    

0000000000401c48 <ub_ok0>:
  401c48:	4c 39 e6             	cmp    %r12,%rsi
  401c4b:	3e 73 02             	jae,pt 401c50 <bounds_ok0>
  401c4e:	0f 0b                	ud2    

0000000000401c50 <bounds_ok0>:
  401c50:	48 39 c2             	cmp    %rax,%rdx
  401c53:	3e 76 02             	jbe,pt 401c58 <ub_ok1>
  401c56:	0f 0b                	ud2    

0000000000401c58 <ub_ok1>:
  401c58:	4c 39 e2             	cmp    %r12,%rdx
  401c5b:	3e 73 02             	jae,pt 401c60 <bounds_ok1>
  401c5e:	0f 0b                	ud2    

0000000000401c60 <bounds_ok1>:
  401c60:	48 63 2c b9          	movslq (%rcx,%rdi,4),%rbp
  401c64:	49 63 de             	movslq %r14d,%rbx
  401c67:	48 0f af eb          	imul   %rbx,%rbp
  401c6b:	48 8d 2c ed 80 60 10 	lea    0x1106080(,%rbp,8),%rbp
  401c72:	01 
  401c73:	48 39 c5             	cmp    %rax,%rbp
  401c76:	3e 76 02             	jbe,pt 401c7b <ub_ok2>
  401c79:	0f 0b                	ud2    

0000000000401c7b <ub_ok2>:
  401c7b:	4c 39 e5             	cmp    %r12,%rbp
  401c7e:	3e 73 02             	jae,pt 401c83 <bounds_ok2>
  401c81:	0f 0b                	ud2    

0000000000401c83 <bounds_ok2>:
  401c83:	48 63 2c b9          	movslq (%rcx,%rdi,4),%rbp
  401c87:	48 0f af eb          	imul   %rbx,%rbp
  401c8b:	f2 0f 10 04 ed 80 60 	movsd  0x1106080(,%rbp,8),%xmm0
  401c92:	10 01 
  401c94:	66 0f 14 c0          	unpcklpd %xmm0,%xmm0
  401c98:	66 0f 59 02          	mulpd  (%rdx),%xmm0
  401c9c:	66 0f 29 06          	movapd %xmm0,(%rsi)
  401ca0:	48 83 c7 01          	add    $0x1,%rdi
  401ca4:	0f b6 2d 95 88 d3 00 	movzbl 0xd38895(%rip),%ebp        # 113a540 <dims.0.0>
  401cab:	c1 e5 06             	shl    $0x6,%ebp
  401cae:	48 83 c2 10          	add    $0x10,%rdx
  401cb2:	48 83 c6 10          	add    $0x10,%rsi
  401cb6:	48 39 ef             	cmp    %rbp,%rdi
  401cb9:	72 85                	jb     401c40 <main+0xac0>
  401cbb:	44 0f b6 2d 8d 88 d3 	movzbl 0xd3888d(%rip),%r13d        # 113a550 <dims.0.1>
  401cc2:	00 
  401cc3:	41 c1 e5 06          	shl    $0x6,%r13d
  401cc7:	e9 34 ff ff ff       	jmpq   401c00 <main+0xa80>
  401ccc:	0f 1f 40 00          	nopl   0x0(%rax)
  401cd0:	be 70 60 80 00       	mov    $0x806070,%esi
  401cd5:	bf ff ff ff ff       	mov    $0xffffffff,%edi
  401cda:	e8 01 0d 00 00       	callq  4029e0 <cffts3>
  401cdf:	bf ff ff ff ff       	mov    $0xffffffff,%edi
  401ce4:	e8 77 09 00 00       	callq  402660 <cffts2>
  401ce9:	be 70 60 c0 00       	mov    $0xc06070,%esi
  401cee:	bf ff ff ff ff       	mov    $0xffffffff,%edi
  401cf3:	e8 e8 06 00 00       	callq  4023e0 <cffts1>
  401cf8:	44 0f b6 25 20 88 d3 	movzbl 0xd38820(%rip),%r12d        # 113a520 <xstart.0>
  401cff:	00 
  401d00:	44 8a 3d 21 88 d3 00 	mov    0xd38821(%rip),%r15b        # 113a528 <xend.0>
  401d07:	44 0f b6 1d 09 88 d3 	movzbl 0xd38809(%rip),%r11d        # 113a518 <ystart.0>
  401d0e:	00 
  401d0f:	44 8a 15 16 88 d3 00 	mov    0xd38816(%rip),%r10b        # 113a52c <yend.0>
  401d16:	44 0f b6 05 f2 87 d3 	movzbl 0xd387f2(%rip),%r8d        # 113a510 <zstart.0>
  401d1d:	00 
  401d1e:	66 0f 57 c0          	xorpd  %xmm0,%xmm0
  401d22:	bb 01 00 00 00       	mov    $0x1,%ebx
  401d27:	bd 05 00 00 00       	mov    $0x5,%ebp
  401d2c:	be 03 00 00 00       	mov    $0x3,%esi
  401d31:	44 8a 0d f8 87 d3 00 	mov    0xd387f8(%rip),%r9b        # 113a530 <zend.0>
  401d38:	eb 1b                	jmp    401d55 <bounds_ok2+0xd2>
  401d3a:	66 0f 1f 44 00 00    	nopw   0x0(%rax,%rax,1)
  401d40:	83 c3 01             	add    $0x1,%ebx
  401d43:	83 c5 05             	add    $0x5,%ebp
  401d46:	83 c6 03             	add    $0x3,%esi
  401d49:	81 fe 03 0c 00 00    	cmp    $0xc03,%esi
  401d4f:	0f 84 ab fd ff ff    	je     401b00 <main+0x980>
  401d55:	89 df                	mov    %ebx,%edi
  401d57:	83 e7 3f             	and    $0x3f,%edi
  401d5a:	48 83 c7 01          	add    $0x1,%rdi
  401d5e:	44 39 e7             	cmp    %r12d,%edi
  401d61:	0f 92 c1             	setb   %cl
  401d64:	44 89 fa             	mov    %r15d,%edx
  401d67:	f6 d2                	not    %dl
  401d69:	08 ca                	or     %cl,%dl
  401d6b:	f6 c2 01             	test   $0x1,%dl
  401d6e:	75 d0                	jne    401d40 <bounds_ok2+0xbd>
  401d70:	89 f2                	mov    %esi,%edx
  401d72:	83 e2 3f             	and    $0x3f,%edx
  401d75:	48 83 c2 01          	add    $0x1,%rdx
  401d79:	44 39 da             	cmp    %r11d,%edx
  401d7c:	0f 92 c1             	setb   %cl
  401d7f:	44 89 d0             	mov    %r10d,%eax
  401d82:	f6 d0                	not    %al
  401d84:	08 c8                	or     %cl,%al
  401d86:	a8 01                	test   $0x1,%al
  401d88:	75 b6                	jne    401d40 <bounds_ok2+0xbd>
  401d8a:	89 e9                	mov    %ebp,%ecx
  401d8c:	83 e1 3f             	and    $0x3f,%ecx
  401d8f:	48 83 c1 01          	add    $0x1,%rcx
  401d93:	44 39 c1             	cmp    %r8d,%ecx
  401d96:	41 0f 92 c5          	setb   %r13b
  401d9a:	44 89 c8             	mov    %r9d,%eax
  401d9d:	f6 d0                	not    %al
  401d9f:	44 08 e8             	or     %r13b,%al
  401da2:	a8 01                	test   $0x1,%al
  401da4:	75 9a                	jne    401d40 <bounds_ok2+0xbd>
  401da6:	4c 29 c1             	sub    %r8,%rcx
  401da9:	4c 29 da             	sub    %r11,%rdx
  401dac:	4c 29 e7             	sub    %r12,%rdi
  401daf:	48 c1 e2 0a          	shl    $0xa,%rdx
  401db3:	48 c1 e1 10          	shl    $0x10,%rcx
  401db7:	48 01 d1             	add    %rdx,%rcx
  401dba:	48 c1 e7 04          	shl    $0x4,%rdi
  401dbe:	66 0f 58 84 0f 70 60 	addpd  0xc06070(%rdi,%rcx,1),%xmm0
  401dc5:	c0 00 
  401dc7:	e9 74 ff ff ff       	jmpq   401d40 <bounds_ok2+0xbd>
  401dcc:	31 c0                	xor    %eax,%eax
  401dce:	66 0f 57 c0          	xorpd  %xmm0,%xmm0
  401dd2:	66 0f 29 84 24 80 00 	movapd %xmm0,0x80(%rsp)
  401dd9:	00 00 
  401ddb:	66 0f 29 44 24 70    	movapd %xmm0,0x70(%rsp)
  401de1:	66 0f 29 84 24 90 00 	movapd %xmm0,0x90(%rsp)
  401de8:	00 00 
  401dea:	48 c7 84 24 a0 00 00 	movq   $0x0,0xa0(%rsp)
  401df1:	00 00 00 00 00 
  401df6:	0f 28 0d 93 22 00 00 	movaps 0x2293(%rip),%xmm1        # 404090 <_IO_stdin_used+0x90>
  401dfd:	0f 11 4c 24 78       	movups %xmm1,0x78(%rsp)
  401e02:	0f 28 0d 97 22 00 00 	movaps 0x2297(%rip),%xmm1        # 4040a0 <_IO_stdin_used+0xa0>
  401e09:	0f 11 8c 24 88 00 00 	movups %xmm1,0x88(%rsp)
  401e10:	00 
  401e11:	66 0f 28 0d 97 22 00 	movapd 0x2297(%rip),%xmm1        # 4040b0 <_IO_stdin_used+0xb0>
  401e18:	00 
  401e19:	66 0f 11 8c 24 98 00 	movupd %xmm1,0x98(%rsp)
  401e20:	00 00 
  401e22:	66 0f 29 44 24 40    	movapd %xmm0,0x40(%rsp)
  401e28:	66 0f 29 44 24 30    	movapd %xmm0,0x30(%rsp)
  401e2e:	66 0f 29 44 24 50    	movapd %xmm0,0x50(%rsp)
  401e34:	48 c7 44 24 60 00 00 	movq   $0x0,0x60(%rsp)
  401e3b:	00 00 
  401e3d:	0f 28 05 7c 22 00 00 	movaps 0x227c(%rip),%xmm0        # 4040c0 <_IO_stdin_used+0xc0>
  401e44:	0f 11 44 24 38       	movups %xmm0,0x38(%rsp)
  401e49:	0f 28 05 80 22 00 00 	movaps 0x2280(%rip),%xmm0        # 4040d0 <_IO_stdin_used+0xd0>
  401e50:	0f 11 44 24 48       	movups %xmm0,0x48(%rsp)
  401e55:	66 0f 28 05 83 22 00 	movapd 0x2283(%rip),%xmm0        # 4040e0 <_IO_stdin_used+0xe0>
  401e5c:	00 
  401e5d:	66 0f 11 44 24 58    	movupd %xmm0,0x58(%rsp)
  401e63:	84 c0                	test   %al,%al
  401e65:	0f 84 25 02 00 00    	je     402090 <bounds_ok2+0x40d>
  401e6b:	f2 0f 10 05 3d 86 d3 	movsd  0xd3863d(%rip),%xmm0        # 113a4b0 <sums+0x10>
  401e72:	00 
  401e73:	f2 0f 58 05 a5 22 00 	addsd  0x22a5(%rip),%xmm0        # 404120 <_IO_stdin_used+0x120>
  401e7a:	00 
  401e7b:	f2 0f 5e 05 a5 22 00 	divsd  0x22a5(%rip),%xmm0        # 404128 <_IO_stdin_used+0x128>
  401e82:	00 
  401e83:	66 0f 54 05 65 22 00 	andpd  0x2265(%rip),%xmm0        # 4040f0 <_IO_stdin_used+0xf0>
  401e8a:	00 
  401e8b:	b3 53                	mov    $0x53,%bl
  401e8d:	bf 0a 43 40 00       	mov    $0x40430a,%edi
  401e92:	66 0f 2e 05 96 22 00 	ucomisd 0x2296(%rip),%xmm0        # 404130 <_IO_stdin_used+0x130>
  401e99:	00 
  401e9a:	41 be 01 00 00 00    	mov    $0x1,%r14d
  401ea0:	0f 87 e5 01 00 00    	ja     40208b <bounds_ok2+0x408>
  401ea6:	f2 0f 10 05 0a 86 d3 	movsd  0xd3860a(%rip),%xmm0        # 113a4b8 <sums+0x18>
  401ead:	00 
  401eae:	f2 0f 58 05 82 22 00 	addsd  0x2282(%rip),%xmm0        # 404138 <_IO_stdin_used+0x138>
  401eb5:	00 
  401eb6:	f2 0f 5e 05 82 22 00 	divsd  0x2282(%rip),%xmm0        # 404140 <_IO_stdin_used+0x140>
  401ebd:	00 
  401ebe:	66 0f 54 05 2a 22 00 	andpd  0x222a(%rip),%xmm0        # 4040f0 <_IO_stdin_used+0xf0>
  401ec5:	00 
  401ec6:	66 0f 2e 05 62 22 00 	ucomisd 0x2262(%rip),%xmm0        # 404130 <_IO_stdin_used+0x130>
  401ecd:	00 
  401ece:	0f 87 b7 01 00 00    	ja     40208b <bounds_ok2+0x408>
  401ed4:	f2 0f 10 84 24 80 00 	movsd  0x80(%rsp),%xmm0
  401edb:	00 00 
  401edd:	f2 0f 10 0d db 85 d3 	movsd  0xd385db(%rip),%xmm1        # 113a4c0 <sums+0x20>
  401ee4:	00 
  401ee5:	f2 0f 5c c8          	subsd  %xmm0,%xmm1
  401ee9:	f2 0f 5e c8          	divsd  %xmm0,%xmm1
  401eed:	66 0f 54 0d fb 21 00 	andpd  0x21fb(%rip),%xmm1        # 4040f0 <_IO_stdin_used+0xf0>
  401ef4:	00 
  401ef5:	66 0f 2e 0d 33 22 00 	ucomisd 0x2233(%rip),%xmm1        # 404130 <_IO_stdin_used+0x130>
  401efc:	00 
  401efd:	0f 87 88 01 00 00    	ja     40208b <bounds_ok2+0x408>
  401f03:	f2 0f 10 44 24 40    	movsd  0x40(%rsp),%xmm0
  401f09:	f2 0f 10 0d b7 85 d3 	movsd  0xd385b7(%rip),%xmm1        # 113a4c8 <sums+0x28>
  401f10:	00 
  401f11:	f2 0f 5c c8          	subsd  %xmm0,%xmm1
  401f15:	f2 0f 5e c8          	divsd  %xmm0,%xmm1
  401f19:	66 0f 54 0d cf 21 00 	andpd  0x21cf(%rip),%xmm1        # 4040f0 <_IO_stdin_used+0xf0>
  401f20:	00 
  401f21:	66 0f 2e 0d 07 22 00 	ucomisd 0x2207(%rip),%xmm1        # 404130 <_IO_stdin_used+0x130>
  401f28:	00 
  401f29:	0f 87 5c 01 00 00    	ja     40208b <bounds_ok2+0x408>
  401f2f:	f2 0f 10 84 24 88 00 	movsd  0x88(%rsp),%xmm0
  401f36:	00 00 
  401f38:	f2 0f 10 0d 90 85 d3 	movsd  0xd38590(%rip),%xmm1        # 113a4d0 <sums+0x30>
  401f3f:	00 
  401f40:	f2 0f 5c c8          	subsd  %xmm0,%xmm1
  401f44:	f2 0f 5e c8          	divsd  %xmm0,%xmm1
  401f48:	66 0f 54 0d a0 21 00 	andpd  0x21a0(%rip),%xmm1        # 4040f0 <_IO_stdin_used+0xf0>
  401f4f:	00 
  401f50:	66 0f 2e 0d d8 21 00 	ucomisd 0x21d8(%rip),%xmm1        # 404130 <_IO_stdin_used+0x130>
  401f57:	00 
  401f58:	0f 87 2d 01 00 00    	ja     40208b <bounds_ok2+0x408>
  401f5e:	f2 0f 10 44 24 48    	movsd  0x48(%rsp),%xmm0
  401f64:	f2 0f 10 0d 6c 85 d3 	movsd  0xd3856c(%rip),%xmm1        # 113a4d8 <sums+0x38>
  401f6b:	00 
  401f6c:	f2 0f 5c c8          	subsd  %xmm0,%xmm1
  401f70:	f2 0f 5e c8          	divsd  %xmm0,%xmm1
  401f74:	66 0f 54 0d 74 21 00 	andpd  0x2174(%rip),%xmm1        # 4040f0 <_IO_stdin_used+0xf0>
  401f7b:	00 
  401f7c:	66 0f 2e 0d ac 21 00 	ucomisd 0x21ac(%rip),%xmm1        # 404130 <_IO_stdin_used+0x130>
  401f83:	00 
  401f84:	0f 87 01 01 00 00    	ja     40208b <bounds_ok2+0x408>
  401f8a:	f2 0f 10 84 24 90 00 	movsd  0x90(%rsp),%xmm0
  401f91:	00 00 
  401f93:	f2 0f 10 0d 45 85 d3 	movsd  0xd38545(%rip),%xmm1        # 113a4e0 <sums+0x40>
  401f9a:	00 
  401f9b:	f2 0f 5c c8          	subsd  %xmm0,%xmm1
  401f9f:	f2 0f 5e c8          	divsd  %xmm0,%xmm1
  401fa3:	66 0f 54 0d 45 21 00 	andpd  0x2145(%rip),%xmm1        # 4040f0 <_IO_stdin_used+0xf0>
  401faa:	00 
  401fab:	66 0f 2e 0d 7d 21 00 	ucomisd 0x217d(%rip),%xmm1        # 404130 <_IO_stdin_used+0x130>
  401fb2:	00 
  401fb3:	0f 87 d2 00 00 00    	ja     40208b <bounds_ok2+0x408>
  401fb9:	f2 0f 10 44 24 50    	movsd  0x50(%rsp),%xmm0
  401fbf:	f2 0f 10 0d 21 85 d3 	movsd  0xd38521(%rip),%xmm1        # 113a4e8 <sums+0x48>
  401fc6:	00 
  401fc7:	f2 0f 5c c8          	subsd  %xmm0,%xmm1
  401fcb:	f2 0f 5e c8          	divsd  %xmm0,%xmm1
  401fcf:	66 0f 54 0d 19 21 00 	andpd  0x2119(%rip),%xmm1        # 4040f0 <_IO_stdin_used+0xf0>
  401fd6:	00 
  401fd7:	66 0f 2e 0d 51 21 00 	ucomisd 0x2151(%rip),%xmm1        # 404130 <_IO_stdin_used+0x130>
  401fde:	00 
  401fdf:	0f 87 a6 00 00 00    	ja     40208b <bounds_ok2+0x408>
  401fe5:	f2 0f 10 84 24 98 00 	movsd  0x98(%rsp),%xmm0
  401fec:	00 00 
  401fee:	f2 0f 10 0d fa 84 d3 	movsd  0xd384fa(%rip),%xmm1        # 113a4f0 <sums+0x50>
  401ff5:	00 
  401ff6:	f2 0f 5c c8          	subsd  %xmm0,%xmm1
  401ffa:	f2 0f 5e c8          	divsd  %xmm0,%xmm1
  401ffe:	66 0f 54 0d ea 20 00 	andpd  0x20ea(%rip),%xmm1        # 4040f0 <_IO_stdin_used+0xf0>
  402005:	00 
  402006:	66 0f 2e 0d 22 21 00 	ucomisd 0x2122(%rip),%xmm1        # 404130 <_IO_stdin_used+0x130>
  40200d:	00 
  40200e:	77 7b                	ja     40208b <bounds_ok2+0x408>
  402010:	f2 0f 10 44 24 58    	movsd  0x58(%rsp),%xmm0
  402016:	f2 0f 10 0d da 84 d3 	movsd  0xd384da(%rip),%xmm1        # 113a4f8 <sums+0x58>
  40201d:	00 
  40201e:	f2 0f 5c c8          	subsd  %xmm0,%xmm1
  402022:	f2 0f 5e c8          	divsd  %xmm0,%xmm1
  402026:	66 0f 54 0d c2 20 00 	andpd  0x20c2(%rip),%xmm1        # 4040f0 <_IO_stdin_used+0xf0>
  40202d:	00 
  40202e:	66 0f 2e 0d fa 20 00 	ucomisd 0x20fa(%rip),%xmm1        # 404130 <_IO_stdin_used+0x130>
  402035:	00 
  402036:	77 53                	ja     40208b <bounds_ok2+0x408>
  402038:	f2 0f 10 84 24 a0 00 	movsd  0xa0(%rsp),%xmm0
  40203f:	00 00 
  402041:	f2 0f 10 0d b7 84 d3 	movsd  0xd384b7(%rip),%xmm1        # 113a500 <sums+0x60>
  402048:	00 
  402049:	f2 0f 5c c8          	subsd  %xmm0,%xmm1
  40204d:	f2 0f 5e c8          	divsd  %xmm0,%xmm1
  402051:	66 0f 54 0d 97 20 00 	andpd  0x2097(%rip),%xmm1        # 4040f0 <_IO_stdin_used+0xf0>
  402058:	00 
  402059:	66 0f 2e 0d cf 20 00 	ucomisd 0x20cf(%rip),%xmm1        # 404130 <_IO_stdin_used+0x130>
  402060:	00 
  402061:	77 28                	ja     40208b <bounds_ok2+0x408>
  402063:	f2 0f 10 44 24 60    	movsd  0x60(%rsp),%xmm0
  402069:	f2 0f 10 0d 97 84 d3 	movsd  0xd38497(%rip),%xmm1        # 113a508 <sums+0x68>
  402070:	00 
  402071:	f2 0f 5c c8          	subsd  %xmm0,%xmm1
  402075:	f2 0f 5e c8          	divsd  %xmm0,%xmm1
  402079:	66 0f 54 0d 6f 20 00 	andpd  0x206f(%rip),%xmm1        # 4040f0 <_IO_stdin_used+0xf0>
  402080:	00 
  402081:	66 0f 2e 0d a7 20 00 	ucomisd 0x20a7(%rip),%xmm1        # 404130 <_IO_stdin_used+0x130>
  402088:	00 
  402089:	76 12                	jbe    40209d <bounds_ok2+0x41a>
  40208b:	45 31 f6             	xor    %r14d,%r14d
  40208e:	eb 0d                	jmp    40209d <bounds_ok2+0x41a>
  402090:	b3 55                	mov    $0x55,%bl
  402092:	bf ef 42 40 00       	mov    $0x4042ef,%edi
  402097:	41 be 01 00 00 00    	mov    $0x1,%r14d
  40209d:	e8 8e ef ff ff       	callq  401030 <puts@plt>
  4020a2:	0f b6 db             	movzbl %bl,%ebx
  4020a5:	31 ed                	xor    %ebp,%ebp
  4020a7:	bf 97 42 40 00       	mov    $0x404297,%edi
  4020ac:	89 de                	mov    %ebx,%esi
  4020ae:	31 c0                	xor    %eax,%eax
  4020b0:	e8 8b ef ff ff       	callq  401040 <printf@plt>
  4020b5:	31 ff                	xor    %edi,%edi
  4020b7:	e8 64 15 00 00       	callq  403620 <timer_stop>
  4020bc:	31 ff                	xor    %edi,%edi
  4020be:	e8 9d 15 00 00       	callq  403660 <timer_read>
  4020c3:	66 0f 57 c9          	xorpd  %xmm1,%xmm1
  4020c7:	8a 05 a3 3f d0 00    	mov    0xd03fa3(%rip),%al        # 1106070 <niter>
  4020cd:	66 0f 2e c1          	ucomisd %xmm1,%xmm0
  4020d1:	75 02                	jne    4020d5 <bounds_ok2+0x452>
  4020d3:	7b 1a                	jnp    4020ef <bounds_ok2+0x46c>
  4020d5:	a8 01                	test   $0x1,%al
  4020d7:	75 0a                	jne    4020e3 <bounds_ok2+0x460>
  4020d9:	f2 0f 10 0d 6f 20 00 	movsd  0x206f(%rip),%xmm1        # 404150 <_IO_stdin_used+0x150>
  4020e0:	00 
  4020e1:	eb 08                	jmp    4020eb <bounds_ok2+0x468>
  4020e3:	f2 0f 10 0d 5d 20 00 	movsd  0x205d(%rip),%xmm1        # 404148 <_IO_stdin_used+0x148>
  4020ea:	00 
  4020eb:	f2 0f 5e c8          	divsd  %xmm0,%xmm1
  4020ef:	a8 01                	test   $0x1,%al
  4020f1:	41 b9 06 00 00 00    	mov    $0x6,%r9d
  4020f7:	44 0f 44 cd          	cmove  %ebp,%r9d
  4020fb:	bf 68 41 40 00       	mov    $0x404168,%edi
  402100:	89 de                	mov    %ebx,%esi
  402102:	ba 40 00 00 00       	mov    $0x40,%edx
  402107:	b9 40 00 00 00       	mov    $0x40,%ecx
  40210c:	41 b8 40 00 00 00    	mov    $0x40,%r8d
  402112:	68 c1 41 40 00       	pushq  $0x4041c1
  402117:	68 ba 41 40 00       	pushq  $0x4041ba
  40211c:	68 b5 41 40 00       	pushq  $0x4041b5
  402121:	68 a9 41 40 00       	pushq  $0x4041a9
  402126:	68 a5 41 40 00       	pushq  $0x4041a5
  40212b:	68 9f 41 40 00       	pushq  $0x40419f
  402130:	68 9f 41 40 00       	pushq  $0x40419f
  402135:	68 93 41 40 00       	pushq  $0x404193
  40213a:	68 84 41 40 00       	pushq  $0x404184
  40213f:	41 56                	push   %r14
  402141:	68 6b 41 40 00       	pushq  $0x40416b
  402146:	6a 01                	pushq  $0x1
  402148:	e8 53 12 00 00       	callq  4033a0 <c_print_results>
  40214d:	48 83 c4 60          	add    $0x60,%rsp
  402151:	31 c0                	xor    %eax,%eax
  402153:	48 81 c4 a8 00 00 00 	add    $0xa8,%rsp
  40215a:	5b                   	pop    %rbx
  40215b:	41 5c                	pop    %r12
  40215d:	41 5d                	pop    %r13
  40215f:	41 5e                	pop    %r14
  402161:	41 5f                	pop    %r15
  402163:	5d                   	pop    %rbp
  402164:	c3                   	retq   
  402165:	66 2e 0f 1f 84 00 00 	nopw   %cs:0x0(%rax,%rax,1)
  40216c:	00 00 00 
  40216f:	90                   	nop

0000000000402170 <compute_initial_conditions>:
  402170:	55                   	push   %rbp
  402171:	41 57                	push   %r15
  402173:	41 56                	push   %r14
  402175:	41 54                	push   %r12
  402177:	53                   	push   %rbx
  402178:	48 83 ec 20          	sub    $0x20,%rsp
  40217c:	48 b8 00 00 00 a1 b0 	movabs $0x41b2b9b0a1000000,%rax
  402183:	b9 b2 41 
  402186:	48 89 44 24 10       	mov    %rax,0x10(%rsp)
  40218b:	0f b6 2d 7e 83 d3 00 	movzbl 0xd3837e(%rip),%ebp        # 113a510 <zstart.0>
  402192:	0f b6 05 7f 83 d3 00 	movzbl 0xd3837f(%rip),%eax        # 113a518 <ystart.0>
  402199:	c1 e0 07             	shl    $0x7,%eax
  40219c:	c1 e5 0d             	shl    $0xd,%ebp
  40219f:	09 c5                	or     %eax,%ebp
  4021a1:	49 bf 00 00 40 e5 9c 	movabs $0x41d2309ce5400000,%r15
  4021a8:	30 d2 41 
  4021ab:	49 bc 00 00 00 00 00 	movabs $0x3ff0000000000000,%r12
  4021b2:	00 f0 3f 
  4021b5:	81 c5 80 df ff ff    	add    $0xffffdf80,%ebp
  4021bb:	74 66                	je     402223 <compute_initial_conditions+0xb3>
  4021bd:	4c 89 7c 24 08       	mov    %r15,0x8(%rsp)
  4021c2:	4c 89 24 24          	mov    %r12,(%rsp)
  4021c6:	f2 0f 10 05 92 1f 00 	movsd  0x1f92(%rip),%xmm0        # 404160 <_IO_stdin_used+0x160>
  4021cd:	00 
  4021ce:	83 fd 02             	cmp    $0x2,%ebp
  4021d1:	7c 41                	jl     402214 <compute_initial_conditions+0xa4>
  4021d3:	4c 8d 74 24 08       	lea    0x8(%rsp),%r14
  4021d8:	48 89 e3             	mov    %rsp,%rbx
  4021db:	eb 19                	jmp    4021f6 <compute_initial_conditions+0x86>
  4021dd:	0f 1f 00             	nopl   (%rax)
  4021e0:	48 89 df             	mov    %rbx,%rdi
  4021e3:	e8 08 10 00 00       	callq  4031f0 <randlc>
  4021e8:	83 c5 ff             	add    $0xffffffff,%ebp
  4021eb:	f2 0f 10 44 24 08    	movsd  0x8(%rsp),%xmm0
  4021f1:	83 fd 01             	cmp    $0x1,%ebp
  4021f4:	7e 1e                	jle    402214 <compute_initial_conditions+0xa4>
  4021f6:	89 e8                	mov    %ebp,%eax
  4021f8:	83 e0 fe             	and    $0xfffffffe,%eax
  4021fb:	39 e8                	cmp    %ebp,%eax
  4021fd:	75 e1                	jne    4021e0 <compute_initial_conditions+0x70>
  4021ff:	d1 ed                	shr    %ebp
  402201:	4c 89 f7             	mov    %r14,%rdi
  402204:	e8 e7 0f 00 00       	callq  4031f0 <randlc>
  402209:	f2 0f 10 44 24 08    	movsd  0x8(%rsp),%xmm0
  40220f:	83 fd 01             	cmp    $0x1,%ebp
  402212:	7f e2                	jg     4021f6 <compute_initial_conditions+0x86>
  402214:	48 89 e7             	mov    %rsp,%rdi
  402217:	e8 d4 0f 00 00       	callq  4031f0 <randlc>
  40221c:	f2 0f 10 04 24       	movsd  (%rsp),%xmm0
  402221:	eb 08                	jmp    40222b <compute_initial_conditions+0xbb>
  402223:	f2 0f 10 05 2d 1f 00 	movsd  0x1f2d(%rip),%xmm0        # 404158 <_IO_stdin_used+0x158>
  40222a:	00 
  40222b:	48 8d 7c 24 10       	lea    0x10(%rsp),%rdi
  402230:	e8 bb 0f 00 00       	callq  4031f0 <randlc>
  402235:	4c 89 7c 24 08       	mov    %r15,0x8(%rsp)
  40223a:	4c 89 24 24          	mov    %r12,(%rsp)
  40223e:	bd 00 20 00 00       	mov    $0x2000,%ebp
  402243:	f2 0f 10 05 15 1f 00 	movsd  0x1f15(%rip),%xmm0        # 404160 <_IO_stdin_used+0x160>
  40224a:	00 
  40224b:	4c 8d 74 24 08       	lea    0x8(%rsp),%r14
  402250:	48 89 e3             	mov    %rsp,%rbx
  402253:	eb 21                	jmp    402276 <compute_initial_conditions+0x106>
  402255:	66 2e 0f 1f 84 00 00 	nopw   %cs:0x0(%rax,%rax,1)
  40225c:	00 00 00 
  40225f:	90                   	nop
  402260:	48 89 df             	mov    %rbx,%rdi
  402263:	e8 88 0f 00 00       	callq  4031f0 <randlc>
  402268:	83 c5 ff             	add    $0xffffffff,%ebp
  40226b:	f2 0f 10 44 24 08    	movsd  0x8(%rsp),%xmm0
  402271:	83 fd 01             	cmp    $0x1,%ebp
  402274:	7e 1e                	jle    402294 <compute_initial_conditions+0x124>
  402276:	89 e8                	mov    %ebp,%eax
  402278:	83 e0 fe             	and    $0xfffffffe,%eax
  40227b:	39 e8                	cmp    %ebp,%eax
  40227d:	75 e1                	jne    402260 <compute_initial_conditions+0xf0>
  40227f:	d1 ed                	shr    %ebp
  402281:	4c 89 f7             	mov    %r14,%rdi
  402284:	e8 67 0f 00 00       	callq  4031f0 <randlc>
  402289:	f2 0f 10 44 24 08    	movsd  0x8(%rsp),%xmm0
  40228f:	83 fd 01             	cmp    $0x1,%ebp
  402292:	7f e2                	jg     402276 <compute_initial_conditions+0x106>
  402294:	48 89 e7             	mov    %rsp,%rdi
  402297:	e8 54 0f 00 00       	callq  4031f0 <randlc>
  40229c:	80 3d b5 82 d3 00 01 	cmpb   $0x1,0xd382b5(%rip)        # 113a558 <dims.0.2>
  4022a3:	0f 85 1c 01 00 00    	jne    4023c5 <compute_initial_conditions+0x255>
  4022a9:	f2 0f 10 04 24       	movsd  (%rsp),%xmm0
  4022ae:	f2 0f 11 44 24 18    	movsd  %xmm0,0x18(%rsp)
  4022b4:	41 bc 70 60 80 00    	mov    $0x806070,%r12d
  4022ba:	31 db                	xor    %ebx,%ebx
  4022bc:	4c 8d 7c 24 08       	lea    0x8(%rsp),%r15
  4022c1:	4c 8d 74 24 10       	lea    0x10(%rsp),%r14
  4022c6:	eb 1e                	jmp    4022e6 <compute_initial_conditions+0x176>
  4022c8:	0f 1f 84 00 00 00 00 	nopl   0x0(%rax,%rax,1)
  4022cf:	00 
  4022d0:	48 83 c3 01          	add    $0x1,%rbx
  4022d4:	89 c0                	mov    %eax,%eax
  4022d6:	49 81 c4 00 00 01 00 	add    $0x10000,%r12
  4022dd:	48 39 c3             	cmp    %rax,%rbx
  4022e0:	0f 83 df 00 00 00    	jae    4023c5 <compute_initial_conditions+0x255>
  4022e6:	48 8b 44 24 10       	mov    0x10(%rsp),%rax
  4022eb:	48 89 44 24 08       	mov    %rax,0x8(%rsp)
  4022f0:	0f b6 3d 59 82 d3 00 	movzbl 0xd38259(%rip),%edi        # 113a550 <dims.0.1>
  4022f7:	c1 e7 0d             	shl    $0xd,%edi
  4022fa:	ba 90 a0 12 01       	mov    $0x112a090,%edx
  4022ff:	4c 89 fe             	mov    %r15,%rsi
  402302:	f2 0f 10 05 56 1e 00 	movsd  0x1e56(%rip),%xmm0        # 404160 <_IO_stdin_used+0x160>
  402309:	00 
  40230a:	e8 91 0f 00 00       	callq  4032a0 <vranlc>
  40230f:	80 3d 3a 82 d3 00 01 	cmpb   $0x1,0xd3823a(%rip)        # 113a550 <dims.0.1>
  402316:	75 7d                	jne    402395 <compute_initial_conditions+0x225>
  402318:	b8 01 00 00 00       	mov    $0x1,%eax
  40231d:	4c 89 e1             	mov    %r12,%rcx
  402320:	31 d2                	xor    %edx,%edx
  402322:	66 2e 0f 1f 84 00 00 	nopw   %cs:0x0(%rax,%rax,1)
  402329:	00 00 00 
  40232c:	0f 1f 40 00          	nopl   0x0(%rax)
  402330:	48 98                	cltq   
  402332:	be 06 00 00 00       	mov    $0x6,%esi
  402337:	66 0f 1f 84 00 00 00 	nopw   0x0(%rax,%rax,1)
  40233e:	00 00 
  402340:	0f 10 04 c5 90 a0 12 	movups 0x112a090(,%rax,8),%xmm0
  402347:	01 
  402348:	0f 29 44 f1 d0       	movaps %xmm0,-0x30(%rcx,%rsi,8)
  40234d:	0f 10 04 c5 a0 a0 12 	movups 0x112a0a0(,%rax,8),%xmm0
  402354:	01 
  402355:	0f 29 44 f1 e0       	movaps %xmm0,-0x20(%rcx,%rsi,8)
  40235a:	0f 10 04 c5 b0 a0 12 	movups 0x112a0b0(,%rax,8),%xmm0
  402361:	01 
  402362:	0f 29 44 f1 f0       	movaps %xmm0,-0x10(%rcx,%rsi,8)
  402367:	0f 10 04 c5 c0 a0 12 	movups 0x112a0c0(,%rax,8),%xmm0
  40236e:	01 
  40236f:	48 83 c0 08          	add    $0x8,%rax
  402373:	0f 29 04 f1          	movaps %xmm0,(%rcx,%rsi,8)
  402377:	48 83 c6 08          	add    $0x8,%rsi
  40237b:	48 81 fe 86 00 00 00 	cmp    $0x86,%rsi
  402382:	75 bc                	jne    402340 <compute_initial_conditions+0x1d0>
  402384:	48 81 c1 00 04 00 00 	add    $0x400,%rcx
  40238b:	48 83 fa 3f          	cmp    $0x3f,%rdx
  40238f:	48 8d 52 01          	lea    0x1(%rdx),%rdx
  402393:	72 9b                	jb     402330 <compute_initial_conditions+0x1c0>
  402395:	0f b6 05 bc 81 d3 00 	movzbl 0xd381bc(%rip),%eax        # 113a558 <dims.0.2>
  40239c:	c1 e0 06             	shl    $0x6,%eax
  40239f:	48 39 c3             	cmp    %rax,%rbx
  4023a2:	0f 84 28 ff ff ff    	je     4022d0 <compute_initial_conditions+0x160>
  4023a8:	4c 89 f7             	mov    %r14,%rdi
  4023ab:	f2 0f 10 44 24 18    	movsd  0x18(%rsp),%xmm0
  4023b1:	e8 3a 0e 00 00       	callq  4031f0 <randlc>
  4023b6:	0f b6 05 9b 81 d3 00 	movzbl 0xd3819b(%rip),%eax        # 113a558 <dims.0.2>
  4023bd:	c1 e0 06             	shl    $0x6,%eax
  4023c0:	e9 0b ff ff ff       	jmpq   4022d0 <compute_initial_conditions+0x160>
  4023c5:	48 83 c4 20          	add    $0x20,%rsp
  4023c9:	5b                   	pop    %rbx
  4023ca:	41 5c                	pop    %r12
  4023cc:	41 5e                	pop    %r14
  4023ce:	41 5f                	pop    %r15
  4023d0:	5d                   	pop    %rbp
  4023d1:	c3                   	retq   
  4023d2:	66 2e 0f 1f 84 00 00 	nopw   %cs:0x0(%rax,%rax,1)
  4023d9:	00 00 00 
  4023dc:	0f 1f 40 00          	nopl   0x0(%rax)

00000000004023e0 <cffts1>:
  4023e0:	55                   	push   %rbp
  4023e1:	41 57                	push   %r15
  4023e3:	41 56                	push   %r14
  4023e5:	41 55                	push   %r13
  4023e7:	41 54                	push   %r12
  4023e9:	53                   	push   %rbx
  4023ea:	48 81 ec 28 90 00 00 	sub    $0x9028,%rsp
  4023f1:	48 89 74 24 08       	mov    %rsi,0x8(%rsp)
  4023f6:	89 7c 24 14          	mov    %edi,0x14(%rsp)
  4023fa:	31 c0                	xor    %eax,%eax
  4023fc:	e8 6f 12 00 00       	callq  403670 <region_lower_bound>
  402401:	31 c0                	xor    %eax,%eax
  402403:	e8 78 12 00 00       	callq  403680 <region_upper_bound>
  402408:	0f b6 05 31 81 d3 00 	movzbl 0xd38131(%rip),%eax        # 113a540 <dims.0.0>
  40240f:	41 bf 01 00 00 00    	mov    $0x1,%r15d
  402415:	83 f8 01             	cmp    $0x1,%eax
  402418:	75 20                	jne    40243a <cffts1+0x5a>
  40241a:	c1 e0 06             	shl    $0x6,%eax
  40241d:	b9 02 00 00 00       	mov    $0x2,%ecx
  402422:	41 bf 01 00 00 00    	mov    $0x1,%r15d
  402428:	0f 1f 84 00 00 00 00 	nopl   0x0(%rax,%rax,1)
  40242f:	00 
  402430:	01 c9                	add    %ecx,%ecx
  402432:	41 83 c7 01          	add    $0x1,%r15d
  402436:	39 c1                	cmp    %eax,%ecx
  402438:	7c f6                	jl     402430 <cffts1+0x50>
  40243a:	0f b6 05 0f 81 d3 00 	movzbl 0xd3810f(%rip),%eax        # 113a550 <dims.0.1>
  402441:	89 c1                	mov    %eax,%ecx
  402443:	c1 e1 06             	shl    $0x6,%ecx
  402446:	83 f8 01             	cmp    $0x1,%eax
  402449:	75 0b                	jne    402456 <cffts1+0x76>
  40244b:	b8 02 00 00 00       	mov    $0x2,%eax
  402450:	01 c0                	add    %eax,%eax
  402452:	39 c8                	cmp    %ecx,%eax
  402454:	7c fa                	jl     402450 <cffts1+0x70>
  402456:	0f b6 05 fb 80 d3 00 	movzbl 0xd380fb(%rip),%eax        # 113a558 <dims.0.2>
  40245d:	89 c2                	mov    %eax,%edx
  40245f:	c1 e2 06             	shl    $0x6,%edx
  402462:	83 f8 01             	cmp    $0x1,%eax
  402465:	75 0f                	jne    402476 <cffts1+0x96>
  402467:	be 02 00 00 00       	mov    $0x2,%esi
  40246c:	0f 1f 40 00          	nopl   0x0(%rax)
  402470:	01 f6                	add    %esi,%esi
  402472:	39 d6                	cmp    %edx,%esi
  402474:	7c fa                	jl     402470 <cffts1+0x90>
  402476:	84 c0                	test   %al,%al
  402478:	0f 84 ca 01 00 00    	je     402648 <cffts1+0x268>
  40247e:	48 83 44 24 08 20    	addq   $0x20,0x8(%rsp)
  402484:	41 bd 90 60 80 00    	mov    $0x806090,%r13d
  40248a:	31 f6                	xor    %esi,%esi
  40248c:	4c 8d a4 24 20 48 00 	lea    0x4820(%rsp),%r12
  402493:	00 
  402494:	eb 39                	jmp    4024cf <cffts1+0xef>
  402496:	66 2e 0f 1f 84 00 00 	nopw   %cs:0x0(%rax,%rax,1)
  40249d:	00 00 00 
  4024a0:	0f b6 15 b1 80 d3 00 	movzbl 0xd380b1(%rip),%edx        # 113a558 <dims.0.2>
  4024a7:	c1 e2 06             	shl    $0x6,%edx
  4024aa:	48 8b 74 24 18       	mov    0x18(%rsp),%rsi
  4024af:	48 83 c6 01          	add    $0x1,%rsi
  4024b3:	48 63 c2             	movslq %edx,%rax
  4024b6:	49 81 c5 00 00 01 00 	add    $0x10000,%r13
  4024bd:	48 81 44 24 08 00 00 	addq   $0x10000,0x8(%rsp)
  4024c4:	01 00 
  4024c6:	48 39 c6             	cmp    %rax,%rsi
  4024c9:	0f 8d 79 01 00 00    	jge    402648 <cffts1+0x268>
  4024cf:	8b 05 c3 80 d3 00    	mov    0xd380c3(%rip),%eax        # 113a598 <fftblock>
  4024d5:	39 c1                	cmp    %eax,%ecx
  4024d7:	7c d6                	jl     4024af <cffts1+0xcf>
  4024d9:	48 89 74 24 18       	mov    %rsi,0x18(%rsp)
  4024de:	45 31 f6             	xor    %r14d,%r14d
  4024e1:	eb 23                	jmp    402506 <cffts1+0x126>
  4024e3:	66 2e 0f 1f 84 00 00 	nopw   %cs:0x0(%rax,%rax,1)
  4024ea:	00 00 00 
  4024ed:	0f 1f 00             	nopl   (%rax)
  4024f0:	41 01 c6             	add    %eax,%r14d
  4024f3:	0f b6 0d 56 80 d3 00 	movzbl 0xd38056(%rip),%ecx        # 113a550 <dims.0.1>
  4024fa:	c1 e1 06             	shl    $0x6,%ecx
  4024fd:	89 ca                	mov    %ecx,%edx
  4024ff:	29 c2                	sub    %eax,%edx
  402501:	41 39 d6             	cmp    %edx,%r14d
  402504:	7f 9a                	jg     4024a0 <cffts1+0xc0>
  402506:	8a 0d 34 80 d3 00    	mov    0xd38034(%rip),%cl        # 113a540 <dims.0.0>
  40250c:	0f b6 d1             	movzbl %cl,%edx
  40250f:	83 e2 01             	and    $0x1,%edx
  402512:	c1 e2 06             	shl    $0x6,%edx
  402515:	85 c0                	test   %eax,%eax
  402517:	0f 8e 7f 00 00 00    	jle    40259c <cffts1+0x1bc>
  40251d:	f6 c1 01             	test   $0x1,%cl
  402520:	74 7a                	je     40259c <cffts1+0x1bc>
  402522:	49 63 de             	movslq %r14d,%rbx
  402525:	41 89 c0             	mov    %eax,%r8d
  402528:	41 89 d1             	mov    %edx,%r9d
  40252b:	48 c1 e3 0a          	shl    $0xa,%rbx
  40252f:	4c 01 eb             	add    %r13,%rbx
  402532:	4c 89 e0             	mov    %r12,%rax
  402535:	31 ed                	xor    %ebp,%ebp
  402537:	66 0f 1f 84 00 00 00 	nopw   0x0(%rax,%rax,1)
  40253e:	00 00 
  402540:	48 89 d9             	mov    %rbx,%rcx
  402543:	48 89 c7             	mov    %rax,%rdi
  402546:	4c 89 ce             	mov    %r9,%rsi
  402549:	0f 1f 80 00 00 00 00 	nopl   0x0(%rax)
  402550:	0f 28 41 e0          	movaps -0x20(%rcx),%xmm0
  402554:	0f 29 07             	movaps %xmm0,(%rdi)
  402557:	0f 28 41 f0          	movaps -0x10(%rcx),%xmm0
  40255b:	0f 29 87 20 01 00 00 	movaps %xmm0,0x120(%rdi)
  402562:	0f 28 01             	movaps (%rcx),%xmm0
  402565:	0f 29 87 40 02 00 00 	movaps %xmm0,0x240(%rdi)
  40256c:	0f 28 41 10          	movaps 0x10(%rcx),%xmm0
  402570:	0f 29 87 60 03 00 00 	movaps %xmm0,0x360(%rdi)
  402577:	48 81 c7 80 04 00 00 	add    $0x480,%rdi
  40257e:	48 83 c1 40          	add    $0x40,%rcx
  402582:	48 83 c6 fc          	add    $0xfffffffffffffffc,%rsi
  402586:	75 c8                	jne    402550 <cffts1+0x170>
  402588:	48 83 c5 01          	add    $0x1,%rbp
  40258c:	48 83 c0 10          	add    $0x10,%rax
  402590:	48 81 c3 00 04 00 00 	add    $0x400,%rbx
  402597:	4c 39 c5             	cmp    %r8,%rbp
  40259a:	75 a4                	jne    402540 <cffts1+0x160>
  40259c:	8b 7c 24 14          	mov    0x14(%rsp),%edi
  4025a0:	44 89 fe             	mov    %r15d,%esi
  4025a3:	4c 89 e1             	mov    %r12,%rcx
  4025a6:	4c 8d 44 24 20       	lea    0x20(%rsp),%r8
  4025ab:	e8 c0 07 00 00       	callq  402d70 <cfftz>
  4025b0:	8b 05 e2 7f d3 00    	mov    0xd37fe2(%rip),%eax        # 113a598 <fftblock>
  4025b6:	85 c0                	test   %eax,%eax
  4025b8:	0f 8e 32 ff ff ff    	jle    4024f0 <cffts1+0x110>
  4025be:	80 3d 7b 7f d3 00 01 	cmpb   $0x1,0xd37f7b(%rip)        # 113a540 <dims.0.0>
  4025c5:	0f 85 25 ff ff ff    	jne    4024f0 <cffts1+0x110>
  4025cb:	49 63 ce             	movslq %r14d,%rcx
  4025ce:	48 c1 e1 0a          	shl    $0xa,%rcx
  4025d2:	48 03 4c 24 08       	add    0x8(%rsp),%rcx
  4025d7:	4c 89 e5             	mov    %r12,%rbp
  4025da:	31 f6                	xor    %esi,%esi
  4025dc:	0f 1f 40 00          	nopl   0x0(%rax)
  4025e0:	31 ff                	xor    %edi,%edi
  4025e2:	48 89 ea             	mov    %rbp,%rdx
  4025e5:	66 2e 0f 1f 84 00 00 	nopw   %cs:0x0(%rax,%rax,1)
  4025ec:	00 00 00 
  4025ef:	90                   	nop
  4025f0:	0f 28 02             	movaps (%rdx),%xmm0
  4025f3:	0f 11 44 39 e0       	movups %xmm0,-0x20(%rcx,%rdi,1)
  4025f8:	0f 28 82 20 01 00 00 	movaps 0x120(%rdx),%xmm0
  4025ff:	0f 11 44 39 f0       	movups %xmm0,-0x10(%rcx,%rdi,1)
  402604:	0f 28 82 40 02 00 00 	movaps 0x240(%rdx),%xmm0
  40260b:	0f 11 04 39          	movups %xmm0,(%rcx,%rdi,1)
  40260f:	0f 28 82 60 03 00 00 	movaps 0x360(%rdx),%xmm0
  402616:	0f 11 44 39 10       	movups %xmm0,0x10(%rcx,%rdi,1)
  40261b:	48 81 c2 80 04 00 00 	add    $0x480,%rdx
  402622:	48 83 c7 40          	add    $0x40,%rdi
  402626:	48 81 ff 00 04 00 00 	cmp    $0x400,%rdi
  40262d:	75 c1                	jne    4025f0 <cffts1+0x210>
  40262f:	48 83 c6 01          	add    $0x1,%rsi
  402633:	48 83 c5 10          	add    $0x10,%rbp
  402637:	48 81 c1 00 04 00 00 	add    $0x400,%rcx
  40263e:	48 39 c6             	cmp    %rax,%rsi
  402641:	72 9d                	jb     4025e0 <cffts1+0x200>
  402643:	e9 a8 fe ff ff       	jmpq   4024f0 <cffts1+0x110>
  402648:	48 81 c4 28 90 00 00 	add    $0x9028,%rsp
  40264f:	5b                   	pop    %rbx
  402650:	41 5c                	pop    %r12
  402652:	41 5d                	pop    %r13
  402654:	41 5e                	pop    %r14
  402656:	41 5f                	pop    %r15
  402658:	5d                   	pop    %rbp
  402659:	c3                   	retq   
  40265a:	66 0f 1f 44 00 00    	nopw   0x0(%rax,%rax,1)

0000000000402660 <cffts2>:
  402660:	55                   	push   %rbp
  402661:	41 57                	push   %r15
  402663:	41 56                	push   %r14
  402665:	41 55                	push   %r13
  402667:	41 54                	push   %r12
  402669:	53                   	push   %rbx
  40266a:	48 81 ec 28 90 00 00 	sub    $0x9028,%rsp
  402671:	89 7c 24 14          	mov    %edi,0x14(%rsp)
  402675:	0f b6 05 e4 7e d3 00 	movzbl 0xd37ee4(%rip),%eax        # 113a560 <dims.1.0>
  40267c:	89 c1                	mov    %eax,%ecx
  40267e:	c1 e1 06             	shl    $0x6,%ecx
  402681:	83 f8 01             	cmp    $0x1,%eax
  402684:	75 10                	jne    402696 <cffts2+0x36>
  402686:	b8 02 00 00 00       	mov    $0x2,%eax
  40268b:	0f 1f 44 00 00       	nopl   0x0(%rax,%rax,1)
  402690:	01 c0                	add    %eax,%eax
  402692:	39 c8                	cmp    %ecx,%eax
  402694:	7c fa                	jl     402690 <cffts2+0x30>
  402696:	0f b6 05 d3 7e d3 00 	movzbl 0xd37ed3(%rip),%eax        # 113a570 <dims.1.1>
  40269d:	89 c7                	mov    %eax,%edi
  40269f:	c1 e7 06             	shl    $0x6,%edi
  4026a2:	ba 01 00 00 00       	mov    $0x1,%edx
  4026a7:	83 f8 01             	cmp    $0x1,%eax
  4026aa:	75 1d                	jne    4026c9 <cffts2+0x69>
  4026ac:	b8 02 00 00 00       	mov    $0x2,%eax
  4026b1:	ba 01 00 00 00       	mov    $0x1,%edx
  4026b6:	66 2e 0f 1f 84 00 00 	nopw   %cs:0x0(%rax,%rax,1)
  4026bd:	00 00 00 
  4026c0:	01 c0                	add    %eax,%eax
  4026c2:	83 c2 01             	add    $0x1,%edx
  4026c5:	39 f8                	cmp    %edi,%eax
  4026c7:	7c f7                	jl     4026c0 <cffts2+0x60>
  4026c9:	89 54 24 10          	mov    %edx,0x10(%rsp)
  4026cd:	0f b6 35 a4 7e d3 00 	movzbl 0xd37ea4(%rip),%esi        # 113a578 <dims.1.2>
  4026d4:	89 f0                	mov    %esi,%eax
  4026d6:	c1 e0 06             	shl    $0x6,%eax
  4026d9:	83 fe 01             	cmp    $0x1,%esi
  4026dc:	75 18                	jne    4026f6 <cffts2+0x96>
  4026de:	ba 02 00 00 00       	mov    $0x2,%edx
  4026e3:	66 2e 0f 1f 84 00 00 	nopw   %cs:0x0(%rax,%rax,1)
  4026ea:	00 00 00 
  4026ed:	0f 1f 00             	nopl   (%rax)
  4026f0:	01 d2                	add    %edx,%edx
  4026f2:	39 c2                	cmp    %eax,%edx
  4026f4:	7c fa                	jl     4026f0 <cffts2+0x90>
  4026f6:	40 84 f6             	test   %sil,%sil
  4026f9:	0f 84 c7 02 00 00    	je     4029c6 <cffts2+0x366>
  4026ff:	ba 70 60 80 00       	mov    $0x806070,%edx
  402704:	48 89 54 24 08       	mov    %rdx,0x8(%rsp)
  402709:	31 f6                	xor    %esi,%esi
  40270b:	eb 2b                	jmp    402738 <cffts2+0xd8>
  40270d:	0f 1f 00             	nopl   (%rax)
  402710:	0f b6 05 61 7e d3 00 	movzbl 0xd37e61(%rip),%eax        # 113a578 <dims.1.2>
  402717:	c1 e0 06             	shl    $0x6,%eax
  40271a:	48 8b 74 24 18       	mov    0x18(%rsp),%rsi
  40271f:	48 83 c6 01          	add    $0x1,%rsi
  402723:	48 63 d0             	movslq %eax,%rdx
  402726:	48 81 44 24 08 00 00 	addq   $0x10000,0x8(%rsp)
  40272d:	01 00 
  40272f:	48 39 d6             	cmp    %rdx,%rsi
  402732:	0f 8d 8e 02 00 00    	jge    4029c6 <cffts2+0x366>
  402738:	8b 15 5a 7e d3 00    	mov    0xd37e5a(%rip),%edx        # 113a598 <fftblock>
  40273e:	39 d1                	cmp    %edx,%ecx
  402740:	7c dd                	jl     40271f <cffts2+0xbf>
  402742:	48 89 74 24 18       	mov    %rsi,0x18(%rsp)
  402747:	c7 44 24 04 00 00 00 	movl   $0x0,0x4(%rsp)
  40274e:	00 
  40274f:	eb 2e                	jmp    40277f <cffts2+0x11f>
  402751:	66 2e 0f 1f 84 00 00 	nopw   %cs:0x0(%rax,%rax,1)
  402758:	00 00 00 
  40275b:	0f 1f 44 00 00       	nopl   0x0(%rax,%rax,1)
  402760:	8b 74 24 04          	mov    0x4(%rsp),%esi
  402764:	01 d6                	add    %edx,%esi
  402766:	0f b6 0d f3 7d d3 00 	movzbl 0xd37df3(%rip),%ecx        # 113a560 <dims.1.0>
  40276d:	c1 e1 06             	shl    $0x6,%ecx
  402770:	89 c8                	mov    %ecx,%eax
  402772:	29 d0                	sub    %edx,%eax
  402774:	89 74 24 04          	mov    %esi,0x4(%rsp)
  402778:	39 c6                	cmp    %eax,%esi
  40277a:	8b 3c 24             	mov    (%rsp),%edi
  40277d:	7f 91                	jg     402710 <cffts2+0xb0>
  40277f:	89 3c 24             	mov    %edi,(%rsp)
  402782:	85 ff                	test   %edi,%edi
  402784:	0f 8e 06 01 00 00    	jle    402890 <cffts2+0x230>
  40278a:	85 d2                	test   %edx,%edx
  40278c:	0f 8e fe 00 00 00    	jle    402890 <cffts2+0x230>
  402792:	4c 63 4c 24 04       	movslq 0x4(%rsp),%r9
  402797:	44 8b 14 24          	mov    (%rsp),%r10d
  40279b:	89 d0                	mov    %edx,%eax
  40279d:	4c 8d 40 ff          	lea    -0x1(%rax),%r8
  4027a1:	41 89 c3             	mov    %eax,%r11d
  4027a4:	41 83 e3 03          	and    $0x3,%r11d
  4027a8:	83 e0 fc             	and    $0xfffffffc,%eax
  4027ab:	4c 89 c9             	mov    %r9,%rcx
  4027ae:	48 c1 e1 04          	shl    $0x4,%rcx
  4027b2:	4c 8b 74 24 08       	mov    0x8(%rsp),%r14
  4027b7:	4c 01 f1             	add    %r14,%rcx
  4027ba:	4c 89 dd             	mov    %r11,%rbp
  4027bd:	48 c1 e5 04          	shl    $0x4,%rbp
  4027c1:	4c 8d 6c 24 20       	lea    0x20(%rsp),%r13
  4027c6:	48 8d 5c 24 50       	lea    0x50(%rsp),%rbx
  4027cb:	45 31 e4             	xor    %r12d,%r12d
  4027ce:	eb 29                	jmp    4027f9 <cffts2+0x199>
  4027d0:	49 83 c4 01          	add    $0x1,%r12
  4027d4:	48 81 c3 20 01 00 00 	add    $0x120,%rbx
  4027db:	48 81 c1 00 04 00 00 	add    $0x400,%rcx
  4027e2:	49 81 c5 20 01 00 00 	add    $0x120,%r13
  4027e9:	49 81 c6 00 04 00 00 	add    $0x400,%r14
  4027f0:	4d 39 d4             	cmp    %r10,%r12
  4027f3:	0f 83 97 00 00 00    	jae    402890 <cffts2+0x230>
  4027f9:	49 83 f8 03          	cmp    $0x3,%r8
  4027fd:	73 11                	jae    402810 <cffts2+0x1b0>
  4027ff:	45 31 ff             	xor    %r15d,%r15d
  402802:	eb 4f                	jmp    402853 <cffts2+0x1f3>
  402804:	66 2e 0f 1f 84 00 00 	nopw   %cs:0x0(%rax,%rax,1)
  40280b:	00 00 00 
  40280e:	66 90                	xchg   %ax,%ax
  402810:	31 f6                	xor    %esi,%esi
  402812:	45 31 ff             	xor    %r15d,%r15d
  402815:	66 2e 0f 1f 84 00 00 	nopw   %cs:0x0(%rax,%rax,1)
  40281c:	00 00 00 
  40281f:	90                   	nop
  402820:	0f 28 04 31          	movaps (%rcx,%rsi,1),%xmm0
  402824:	0f 29 44 33 d0       	movaps %xmm0,-0x30(%rbx,%rsi,1)
  402829:	0f 28 44 31 10       	movaps 0x10(%rcx,%rsi,1),%xmm0
  40282e:	0f 29 44 33 e0       	movaps %xmm0,-0x20(%rbx,%rsi,1)
  402833:	0f 28 44 31 20       	movaps 0x20(%rcx,%rsi,1),%xmm0
  402838:	0f 29 44 33 f0       	movaps %xmm0,-0x10(%rbx,%rsi,1)
  40283d:	0f 28 44 31 30       	movaps 0x30(%rcx,%rsi,1),%xmm0
  402842:	0f 29 04 33          	movaps %xmm0,(%rbx,%rsi,1)
  402846:	49 83 c7 04          	add    $0x4,%r15
  40284a:	48 83 c6 40          	add    $0x40,%rsi
  40284e:	4c 39 f8             	cmp    %r15,%rax
  402851:	75 cd                	jne    402820 <cffts2+0x1c0>
  402853:	4d 85 db             	test   %r11,%r11
  402856:	0f 84 74 ff ff ff    	je     4027d0 <cffts2+0x170>
  40285c:	4b 8d 34 39          	lea    (%r9,%r15,1),%rsi
  402860:	49 c1 e7 04          	shl    $0x4,%r15
  402864:	4d 01 ef             	add    %r13,%r15
  402867:	48 c1 e6 04          	shl    $0x4,%rsi
  40286b:	4c 01 f6             	add    %r14,%rsi
  40286e:	31 ff                	xor    %edi,%edi
  402870:	0f 28 04 3e          	movaps (%rsi,%rdi,1),%xmm0
  402874:	41 0f 29 04 3f       	movaps %xmm0,(%r15,%rdi,1)
  402879:	48 83 c7 10          	add    $0x10,%rdi
  40287d:	48 39 fd             	cmp    %rdi,%rbp
  402880:	75 ee                	jne    402870 <cffts2+0x210>
  402882:	e9 49 ff ff ff       	jmpq   4027d0 <cffts2+0x170>
  402887:	66 0f 1f 84 00 00 00 	nopw   0x0(%rax,%rax,1)
  40288e:	00 00 
  402890:	8b 7c 24 14          	mov    0x14(%rsp),%edi
  402894:	8b 74 24 10          	mov    0x10(%rsp),%esi
  402898:	8b 14 24             	mov    (%rsp),%edx
  40289b:	48 8d 4c 24 20       	lea    0x20(%rsp),%rcx
  4028a0:	4c 8d 84 24 20 48 00 	lea    0x4820(%rsp),%r8
  4028a7:	00 
  4028a8:	e8 c3 04 00 00       	callq  402d70 <cfftz>
  4028ad:	0f b6 05 bc 7c d3 00 	movzbl 0xd37cbc(%rip),%eax        # 113a570 <dims.1.1>
  4028b4:	89 c1                	mov    %eax,%ecx
  4028b6:	c1 e1 06             	shl    $0x6,%ecx
  4028b9:	89 0c 24             	mov    %ecx,(%rsp)
  4028bc:	8b 15 d6 7c d3 00    	mov    0xd37cd6(%rip),%edx        # 113a598 <fftblock>
  4028c2:	83 f8 01             	cmp    $0x1,%eax
  4028c5:	0f 85 95 fe ff ff    	jne    402760 <cffts2+0x100>
  4028cb:	85 d2                	test   %edx,%edx
  4028cd:	0f 8e 8d fe ff ff    	jle    402760 <cffts2+0x100>
  4028d3:	4c 63 4c 24 04       	movslq 0x4(%rsp),%r9
  4028d8:	44 8b 14 24          	mov    (%rsp),%r10d
  4028dc:	4c 8d 5a ff          	lea    -0x1(%rdx),%r11
  4028e0:	41 89 d4             	mov    %edx,%r12d
  4028e3:	41 83 e4 03          	and    $0x3,%r12d
  4028e7:	41 89 d0             	mov    %edx,%r8d
  4028ea:	41 83 e0 fc          	and    $0xfffffffc,%r8d
  4028ee:	4c 89 c9             	mov    %r9,%rcx
  4028f1:	48 c1 e1 04          	shl    $0x4,%rcx
  4028f5:	4c 8b 7c 24 08       	mov    0x8(%rsp),%r15
  4028fa:	4c 01 f9             	add    %r15,%rcx
  4028fd:	4c 89 e0             	mov    %r12,%rax
  402900:	48 c1 e0 04          	shl    $0x4,%rax
  402904:	48 8d 7c 24 20       	lea    0x20(%rsp),%rdi
  402909:	45 31 ed             	xor    %r13d,%r13d
  40290c:	eb 24                	jmp    402932 <cffts2+0x2d2>
  40290e:	66 90                	xchg   %ax,%ax
  402910:	49 83 c5 01          	add    $0x1,%r13
  402914:	48 81 c7 20 01 00 00 	add    $0x120,%rdi
  40291b:	48 81 c1 00 04 00 00 	add    $0x400,%rcx
  402922:	49 81 c7 00 04 00 00 	add    $0x400,%r15
  402929:	4d 39 d5             	cmp    %r10,%r13
  40292c:	0f 83 2e fe ff ff    	jae    402760 <cffts2+0x100>
  402932:	49 83 fb 03          	cmp    $0x3,%r11
  402936:	73 08                	jae    402940 <cffts2+0x2e0>
  402938:	31 f6                	xor    %esi,%esi
  40293a:	eb 4f                	jmp    40298b <cffts2+0x32b>
  40293c:	0f 1f 40 00          	nopl   0x0(%rax)
  402940:	41 be 20 00 00 00    	mov    $0x20,%r14d
  402946:	31 f6                	xor    %esi,%esi
  402948:	0f 1f 84 00 00 00 00 	nopl   0x0(%rax,%rax,1)
  40294f:	00 
  402950:	42 0f 28 44 37 e0    	movaps -0x20(%rdi,%r14,1),%xmm0
  402956:	42 0f 29 44 31 e0    	movaps %xmm0,-0x20(%rcx,%r14,1)
  40295c:	42 0f 28 44 37 f0    	movaps -0x10(%rdi,%r14,1),%xmm0
  402962:	42 0f 29 44 31 f0    	movaps %xmm0,-0x10(%rcx,%r14,1)
  402968:	42 0f 28 04 37       	movaps (%rdi,%r14,1),%xmm0
  40296d:	42 0f 29 04 31       	movaps %xmm0,(%rcx,%r14,1)
  402972:	42 0f 28 44 37 10    	movaps 0x10(%rdi,%r14,1),%xmm0
  402978:	42 0f 29 44 31 10    	movaps %xmm0,0x10(%rcx,%r14,1)
  40297e:	48 83 c6 04          	add    $0x4,%rsi
  402982:	49 83 c6 40          	add    $0x40,%r14
  402986:	49 39 f0             	cmp    %rsi,%r8
  402989:	75 c5                	jne    402950 <cffts2+0x2f0>
  40298b:	4d 85 e4             	test   %r12,%r12
  40298e:	74 80                	je     402910 <cffts2+0x2b0>
  402990:	49 8d 1c 31          	lea    (%r9,%rsi,1),%rbx
  402994:	48 c1 e3 04          	shl    $0x4,%rbx
  402998:	4c 01 fb             	add    %r15,%rbx
  40299b:	48 c1 e6 04          	shl    $0x4,%rsi
  40299f:	48 01 fe             	add    %rdi,%rsi
  4029a2:	31 ed                	xor    %ebp,%ebp
  4029a4:	66 2e 0f 1f 84 00 00 	nopw   %cs:0x0(%rax,%rax,1)
  4029ab:	00 00 00 
  4029ae:	66 90                	xchg   %ax,%ax
  4029b0:	0f 28 04 2e          	movaps (%rsi,%rbp,1),%xmm0
  4029b4:	0f 29 04 2b          	movaps %xmm0,(%rbx,%rbp,1)
  4029b8:	48 83 c5 10          	add    $0x10,%rbp
  4029bc:	48 39 e8             	cmp    %rbp,%rax
  4029bf:	75 ef                	jne    4029b0 <cffts2+0x350>
  4029c1:	e9 4a ff ff ff       	jmpq   402910 <cffts2+0x2b0>
  4029c6:	48 81 c4 28 90 00 00 	add    $0x9028,%rsp
  4029cd:	5b                   	pop    %rbx
  4029ce:	41 5c                	pop    %r12
  4029d0:	41 5d                	pop    %r13
  4029d2:	41 5e                	pop    %r14
  4029d4:	41 5f                	pop    %r15
  4029d6:	5d                   	pop    %rbp
  4029d7:	c3                   	retq   
  4029d8:	0f 1f 84 00 00 00 00 	nopl   0x0(%rax,%rax,1)
  4029df:	00 

00000000004029e0 <cffts3>:
  4029e0:	55                   	push   %rbp
  4029e1:	41 57                	push   %r15
  4029e3:	41 56                	push   %r14
  4029e5:	41 55                	push   %r13
  4029e7:	41 54                	push   %r12
  4029e9:	53                   	push   %rbx
  4029ea:	48 81 ec 38 90 00 00 	sub    $0x9038,%rsp
  4029f1:	48 89 74 24 18       	mov    %rsi,0x18(%rsp)
  4029f6:	89 7c 24 14          	mov    %edi,0x14(%rsp)
  4029fa:	0f b6 0d 7f 7b d3 00 	movzbl 0xd37b7f(%rip),%ecx        # 113a580 <dims.2.0>
  402a01:	89 c8                	mov    %ecx,%eax
  402a03:	c1 e0 06             	shl    $0x6,%eax
  402a06:	83 f9 01             	cmp    $0x1,%ecx
  402a09:	75 0b                	jne    402a16 <cffts3+0x36>
  402a0b:	b9 02 00 00 00       	mov    $0x2,%ecx
  402a10:	01 c9                	add    %ecx,%ecx
  402a12:	39 c1                	cmp    %eax,%ecx
  402a14:	7c fa                	jl     402a10 <cffts3+0x30>
  402a16:	0f b6 35 6b 7b d3 00 	movzbl 0xd37b6b(%rip),%esi        # 113a588 <dims.2.1>
  402a1d:	89 f1                	mov    %esi,%ecx
  402a1f:	c1 e1 06             	shl    $0x6,%ecx
  402a22:	83 fe 01             	cmp    $0x1,%esi
  402a25:	75 0f                	jne    402a36 <cffts3+0x56>
  402a27:	ba 02 00 00 00       	mov    $0x2,%edx
  402a2c:	0f 1f 40 00          	nopl   0x0(%rax)
  402a30:	01 d2                	add    %edx,%edx
  402a32:	39 ca                	cmp    %ecx,%edx
  402a34:	7c fa                	jl     402a30 <cffts3+0x50>
  402a36:	0f b6 15 53 7b d3 00 	movzbl 0xd37b53(%rip),%edx        # 113a590 <dims.2.2>
  402a3d:	41 89 d4             	mov    %edx,%r12d
  402a40:	41 c1 e4 06          	shl    $0x6,%r12d
  402a44:	41 bf 01 00 00 00    	mov    $0x1,%r15d
  402a4a:	83 fa 01             	cmp    $0x1,%edx
  402a4d:	75 1c                	jne    402a6b <cffts3+0x8b>
  402a4f:	bf 02 00 00 00       	mov    $0x2,%edi
  402a54:	41 bf 01 00 00 00    	mov    $0x1,%r15d
  402a5a:	66 0f 1f 44 00 00    	nopw   0x0(%rax,%rax,1)
  402a60:	01 ff                	add    %edi,%edi
  402a62:	41 83 c7 01          	add    $0x1,%r15d
  402a66:	44 39 e7             	cmp    %r12d,%edi
  402a69:	7c f5                	jl     402a60 <cffts3+0x80>
  402a6b:	40 84 f6             	test   %sil,%sil
  402a6e:	0f 84 e3 02 00 00    	je     402d57 <cffts3+0x377>
  402a74:	ba 70 60 80 00       	mov    $0x806070,%edx
  402a79:	48 89 54 24 20       	mov    %rdx,0x20(%rsp)
  402a7e:	31 ff                	xor    %edi,%edi
  402a80:	44 89 7c 24 10       	mov    %r15d,0x10(%rsp)
  402a85:	eb 3a                	jmp    402ac1 <cffts3+0xe1>
  402a87:	66 0f 1f 84 00 00 00 	nopw   0x0(%rax,%rax,1)
  402a8e:	00 00 
  402a90:	0f b6 0d f1 7a d3 00 	movzbl 0xd37af1(%rip),%ecx        # 113a588 <dims.2.1>
  402a97:	c1 e1 06             	shl    $0x6,%ecx
  402a9a:	48 8b 7c 24 28       	mov    0x28(%rsp),%rdi
  402a9f:	48 83 c7 01          	add    $0x1,%rdi
  402aa3:	48 63 d1             	movslq %ecx,%rdx
  402aa6:	48 81 44 24 20 00 04 	addq   $0x400,0x20(%rsp)
  402aad:	00 00 
  402aaf:	48 81 44 24 18 00 04 	addq   $0x400,0x18(%rsp)
  402ab6:	00 00 
  402ab8:	48 39 d7             	cmp    %rdx,%rdi
  402abb:	0f 8d 96 02 00 00    	jge    402d57 <cffts3+0x377>
  402ac1:	8b 35 d1 7a d3 00    	mov    0xd37ad1(%rip),%esi        # 113a598 <fftblock>
  402ac7:	39 f0                	cmp    %esi,%eax
  402ac9:	7c d4                	jl     402a9f <cffts3+0xbf>
  402acb:	48 89 7c 24 28       	mov    %rdi,0x28(%rsp)
  402ad0:	c7 44 24 08 00 00 00 	movl   $0x0,0x8(%rsp)
  402ad7:	00 
  402ad8:	eb 28                	jmp    402b02 <cffts3+0x122>
  402ada:	66 0f 1f 44 00 00    	nopw   0x0(%rax,%rax,1)
  402ae0:	8b 35 b2 7a d3 00    	mov    0xd37ab2(%rip),%esi        # 113a598 <fftblock>
  402ae6:	8b 54 24 08          	mov    0x8(%rsp),%edx
  402aea:	01 f2                	add    %esi,%edx
  402aec:	0f b6 05 8d 7a d3 00 	movzbl 0xd37a8d(%rip),%eax        # 113a580 <dims.2.0>
  402af3:	c1 e0 06             	shl    $0x6,%eax
  402af6:	89 c1                	mov    %eax,%ecx
  402af8:	29 f1                	sub    %esi,%ecx
  402afa:	89 54 24 08          	mov    %edx,0x8(%rsp)
  402afe:	39 ca                	cmp    %ecx,%edx
  402b00:	7f 8e                	jg     402a90 <cffts3+0xb0>
  402b02:	44 89 64 24 0c       	mov    %r12d,0xc(%rsp)
  402b07:	45 85 e4             	test   %r12d,%r12d
  402b0a:	0f 8e 20 01 00 00    	jle    402c30 <cffts3+0x250>
  402b10:	85 f6                	test   %esi,%esi
  402b12:	0f 8e 18 01 00 00    	jle    402c30 <cffts3+0x250>
  402b18:	48 63 54 24 08       	movslq 0x8(%rsp),%rdx
  402b1d:	44 8b 4c 24 0c       	mov    0xc(%rsp),%r9d
  402b22:	89 f6                	mov    %esi,%esi
  402b24:	4c 8d 56 ff          	lea    -0x1(%rsi),%r10
  402b28:	41 89 f3             	mov    %esi,%r11d
  402b2b:	41 83 e3 03          	and    $0x3,%r11d
  402b2f:	83 e6 fc             	and    $0xfffffffc,%esi
  402b32:	48 89 d0             	mov    %rdx,%rax
  402b35:	48 c1 e0 04          	shl    $0x4,%rax
  402b39:	4c 8b 64 24 20       	mov    0x20(%rsp),%r12
  402b3e:	4c 01 e0             	add    %r12,%rax
  402b41:	4c 89 db             	mov    %r11,%rbx
  402b44:	48 c1 e3 04          	shl    $0x4,%rbx
  402b48:	4c 8d 44 24 30       	lea    0x30(%rsp),%r8
  402b4d:	48 8d 6c 24 60       	lea    0x60(%rsp),%rbp
  402b52:	45 31 ed             	xor    %r13d,%r13d
  402b55:	eb 31                	jmp    402b88 <cffts3+0x1a8>
  402b57:	66 0f 1f 84 00 00 00 	nopw   0x0(%rax,%rax,1)
  402b5e:	00 00 
  402b60:	49 83 c5 01          	add    $0x1,%r13
  402b64:	48 81 c5 20 01 00 00 	add    $0x120,%rbp
  402b6b:	48 05 00 00 01 00    	add    $0x10000,%rax
  402b71:	49 81 c0 20 01 00 00 	add    $0x120,%r8
  402b78:	49 81 c4 00 00 01 00 	add    $0x10000,%r12
  402b7f:	4d 39 cd             	cmp    %r9,%r13
  402b82:	0f 83 a8 00 00 00    	jae    402c30 <cffts3+0x250>
  402b88:	49 83 fa 03          	cmp    $0x3,%r10
  402b8c:	73 12                	jae    402ba0 <cffts3+0x1c0>
  402b8e:	45 31 f6             	xor    %r14d,%r14d
  402b91:	eb 59                	jmp    402bec <cffts3+0x20c>
  402b93:	66 2e 0f 1f 84 00 00 	nopw   %cs:0x0(%rax,%rax,1)
  402b9a:	00 00 00 
  402b9d:	0f 1f 00             	nopl   (%rax)
  402ba0:	45 31 ff             	xor    %r15d,%r15d
  402ba3:	45 31 f6             	xor    %r14d,%r14d
  402ba6:	66 2e 0f 1f 84 00 00 	nopw   %cs:0x0(%rax,%rax,1)
  402bad:	00 00 00 
  402bb0:	42 0f 28 04 38       	movaps (%rax,%r15,1),%xmm0
  402bb5:	42 0f 29 44 3d d0    	movaps %xmm0,-0x30(%rbp,%r15,1)
  402bbb:	42 0f 28 44 38 10    	movaps 0x10(%rax,%r15,1),%xmm0
  402bc1:	42 0f 29 44 3d e0    	movaps %xmm0,-0x20(%rbp,%r15,1)
  402bc7:	42 0f 28 44 38 20    	movaps 0x20(%rax,%r15,1),%xmm0
  402bcd:	42 0f 29 44 3d f0    	movaps %xmm0,-0x10(%rbp,%r15,1)
  402bd3:	42 0f 28 44 38 30    	movaps 0x30(%rax,%r15,1),%xmm0
  402bd9:	42 0f 29 44 3d 00    	movaps %xmm0,0x0(%rbp,%r15,1)
  402bdf:	49 83 c6 04          	add    $0x4,%r14
  402be3:	49 83 c7 40          	add    $0x40,%r15
  402be7:	4c 39 f6             	cmp    %r14,%rsi
  402bea:	75 c4                	jne    402bb0 <cffts3+0x1d0>
  402bec:	4d 85 db             	test   %r11,%r11
  402bef:	0f 84 6b ff ff ff    	je     402b60 <cffts3+0x180>
  402bf5:	4a 8d 0c 32          	lea    (%rdx,%r14,1),%rcx
  402bf9:	49 c1 e6 04          	shl    $0x4,%r14
  402bfd:	4d 01 c6             	add    %r8,%r14
  402c00:	48 c1 e1 04          	shl    $0x4,%rcx
  402c04:	4c 01 e1             	add    %r12,%rcx
  402c07:	31 ff                	xor    %edi,%edi
  402c09:	0f 1f 80 00 00 00 00 	nopl   0x0(%rax)
  402c10:	0f 28 04 39          	movaps (%rcx,%rdi,1),%xmm0
  402c14:	41 0f 29 04 3e       	movaps %xmm0,(%r14,%rdi,1)
  402c19:	48 83 c7 10          	add    $0x10,%rdi
  402c1d:	48 39 fb             	cmp    %rdi,%rbx
  402c20:	75 ee                	jne    402c10 <cffts3+0x230>
  402c22:	e9 39 ff ff ff       	jmpq   402b60 <cffts3+0x180>
  402c27:	66 0f 1f 84 00 00 00 	nopw   0x0(%rax,%rax,1)
  402c2e:	00 00 
  402c30:	8b 7c 24 14          	mov    0x14(%rsp),%edi
  402c34:	8b 74 24 10          	mov    0x10(%rsp),%esi
  402c38:	8b 54 24 0c          	mov    0xc(%rsp),%edx
  402c3c:	48 8d 4c 24 30       	lea    0x30(%rsp),%rcx
  402c41:	4c 8d 84 24 30 48 00 	lea    0x4830(%rsp),%r8
  402c48:	00 
  402c49:	e8 22 01 00 00       	callq  402d70 <cfftz>
  402c4e:	0f b6 05 3b 79 d3 00 	movzbl 0xd3793b(%rip),%eax        # 113a590 <dims.2.2>
  402c55:	41 89 c4             	mov    %eax,%r12d
  402c58:	41 c1 e4 06          	shl    $0x6,%r12d
  402c5c:	83 f8 01             	cmp    $0x1,%eax
  402c5f:	0f 85 7b fe ff ff    	jne    402ae0 <cffts3+0x100>
  402c65:	8b 05 2d 79 d3 00    	mov    0xd3792d(%rip),%eax        # 113a598 <fftblock>
  402c6b:	85 c0                	test   %eax,%eax
  402c6d:	0f 8e 6d fe ff ff    	jle    402ae0 <cffts3+0x100>
  402c73:	4c 63 44 24 08       	movslq 0x8(%rsp),%r8
  402c78:	45 89 e1             	mov    %r12d,%r9d
  402c7b:	4c 8d 50 ff          	lea    -0x1(%rax),%r10
  402c7f:	41 89 c3             	mov    %eax,%r11d
  402c82:	41 83 e3 03          	and    $0x3,%r11d
  402c86:	83 e0 fc             	and    $0xfffffffc,%eax
  402c89:	4c 89 c1             	mov    %r8,%rcx
  402c8c:	48 c1 e1 04          	shl    $0x4,%rcx
  402c90:	4c 8b 74 24 18       	mov    0x18(%rsp),%r14
  402c95:	4c 01 f1             	add    %r14,%rcx
  402c98:	4c 89 db             	mov    %r11,%rbx
  402c9b:	48 c1 e3 04          	shl    $0x4,%rbx
  402c9f:	48 8d 7c 24 30       	lea    0x30(%rsp),%rdi
  402ca4:	45 31 ed             	xor    %r13d,%r13d
  402ca7:	eb 29                	jmp    402cd2 <cffts3+0x2f2>
  402ca9:	0f 1f 80 00 00 00 00 	nopl   0x0(%rax)
  402cb0:	49 83 c5 01          	add    $0x1,%r13
  402cb4:	48 81 c7 20 01 00 00 	add    $0x120,%rdi
  402cbb:	48 81 c1 00 00 01 00 	add    $0x10000,%rcx
  402cc2:	49 81 c6 00 00 01 00 	add    $0x10000,%r14
  402cc9:	4d 39 cd             	cmp    %r9,%r13
  402ccc:	0f 83 0e fe ff ff    	jae    402ae0 <cffts3+0x100>
  402cd2:	49 83 fa 03          	cmp    $0x3,%r10
  402cd6:	73 08                	jae    402ce0 <cffts3+0x300>
  402cd8:	31 f6                	xor    %esi,%esi
  402cda:	eb 47                	jmp    402d23 <cffts3+0x343>
  402cdc:	0f 1f 40 00          	nopl   0x0(%rax)
  402ce0:	bd 20 00 00 00       	mov    $0x20,%ebp
  402ce5:	31 f6                	xor    %esi,%esi
  402ce7:	66 0f 1f 84 00 00 00 	nopw   0x0(%rax,%rax,1)
  402cee:	00 00 
  402cf0:	0f 28 44 2f e0       	movaps -0x20(%rdi,%rbp,1),%xmm0
  402cf5:	0f 11 44 29 e0       	movups %xmm0,-0x20(%rcx,%rbp,1)
  402cfa:	0f 28 44 2f f0       	movaps -0x10(%rdi,%rbp,1),%xmm0
  402cff:	0f 11 44 29 f0       	movups %xmm0,-0x10(%rcx,%rbp,1)
  402d04:	0f 28 04 2f          	movaps (%rdi,%rbp,1),%xmm0
  402d08:	0f 11 04 29          	movups %xmm0,(%rcx,%rbp,1)
  402d0c:	0f 28 44 2f 10       	movaps 0x10(%rdi,%rbp,1),%xmm0
  402d11:	0f 11 44 29 10       	movups %xmm0,0x10(%rcx,%rbp,1)
  402d16:	48 83 c6 04          	add    $0x4,%rsi
  402d1a:	48 83 c5 40          	add    $0x40,%rbp
  402d1e:	48 39 f0             	cmp    %rsi,%rax
  402d21:	75 cd                	jne    402cf0 <cffts3+0x310>
  402d23:	4d 85 db             	test   %r11,%r11
  402d26:	74 88                	je     402cb0 <cffts3+0x2d0>
  402d28:	49 8d 2c 30          	lea    (%r8,%rsi,1),%rbp
  402d2c:	48 c1 e5 04          	shl    $0x4,%rbp
  402d30:	4c 01 f5             	add    %r14,%rbp
  402d33:	48 c1 e6 04          	shl    $0x4,%rsi
  402d37:	48 01 fe             	add    %rdi,%rsi
  402d3a:	31 d2                	xor    %edx,%edx
  402d3c:	0f 1f 40 00          	nopl   0x0(%rax)
  402d40:	0f 28 04 16          	movaps (%rsi,%rdx,1),%xmm0
  402d44:	0f 11 44 15 00       	movups %xmm0,0x0(%rbp,%rdx,1)
  402d49:	48 83 c2 10          	add    $0x10,%rdx
  402d4d:	48 39 d3             	cmp    %rdx,%rbx
  402d50:	75 ee                	jne    402d40 <cffts3+0x360>
  402d52:	e9 59 ff ff ff       	jmpq   402cb0 <cffts3+0x2d0>
  402d57:	48 81 c4 38 90 00 00 	add    $0x9038,%rsp
  402d5e:	5b                   	pop    %rbx
  402d5f:	41 5c                	pop    %r12
  402d61:	41 5d                	pop    %r13
  402d63:	41 5e                	pop    %r14
  402d65:	41 5f                	pop    %r15
  402d67:	5d                   	pop    %rbp
  402d68:	c3                   	retq   
  402d69:	0f 1f 80 00 00 00 00 	nopl   0x0(%rax)

0000000000402d70 <cfftz>:
  402d70:	55                   	push   %rbp
  402d71:	41 57                	push   %r15
  402d73:	41 56                	push   %r14
  402d75:	41 55                	push   %r13
  402d77:	41 54                	push   %r12
  402d79:	53                   	push   %rbx
  402d7a:	50                   	push   %rax
  402d7b:	49 89 cd             	mov    %rcx,%r13
  402d7e:	41 89 d7             	mov    %edx,%r15d
  402d81:	89 f5                	mov    %esi,%ebp
  402d83:	41 89 fc             	mov    %edi,%r12d
  402d86:	f2 0f 2c 0d 12 73 d3 	cvttsd2si 0xd37312(%rip),%ecx        # 113a0a0 <u>
  402d8d:	00 
  402d8e:	83 ff 01             	cmp    $0x1,%edi
  402d91:	0f 95 c0             	setne  %al
  402d94:	83 ff ff             	cmp    $0xffffffff,%edi
  402d97:	0f 95 c2             	setne  %dl
  402d9a:	84 d0                	test   %dl,%al
  402d9c:	0f 85 83 01 00 00    	jne    402f25 <cfftz+0x1b5>
  402da2:	85 ed                	test   %ebp,%ebp
  402da4:	0f 8e 7b 01 00 00    	jle    402f25 <cfftz+0x1b5>
  402daa:	39 e9                	cmp    %ebp,%ecx
  402dac:	0f 8c 73 01 00 00    	jl     402f25 <cfftz+0x1b5>
  402db2:	4d 89 c6             	mov    %r8,%r14
  402db5:	bb 01 00 00 00       	mov    $0x1,%ebx
  402dba:	66 0f 1f 44 00 00    	nopw   0x0(%rax,%rax,1)
  402dc0:	44 8b 05 d1 77 d3 00 	mov    0xd377d1(%rip),%r8d        # 113a598 <fftblock>
  402dc7:	4c 89 34 24          	mov    %r14,(%rsp)
  402dcb:	44 89 e7             	mov    %r12d,%edi
  402dce:	89 de                	mov    %ebx,%esi
  402dd0:	89 ea                	mov    %ebp,%edx
  402dd2:	44 89 f9             	mov    %r15d,%ecx
  402dd5:	4d 89 e9             	mov    %r13,%r9
  402dd8:	e8 63 01 00 00       	callq  402f40 <fftz2>
  402ddd:	39 eb                	cmp    %ebp,%ebx
  402ddf:	74 25                	je     402e06 <cfftz+0x96>
  402de1:	44 8b 05 b0 77 d3 00 	mov    0xd377b0(%rip),%r8d        # 113a598 <fftblock>
  402de8:	8d 73 01             	lea    0x1(%rbx),%esi
  402deb:	4c 89 2c 24          	mov    %r13,(%rsp)
  402def:	44 89 e7             	mov    %r12d,%edi
  402df2:	89 ea                	mov    %ebp,%edx
  402df4:	44 89 f9             	mov    %r15d,%ecx
  402df7:	4d 89 f1             	mov    %r14,%r9
  402dfa:	e8 41 01 00 00       	callq  402f40 <fftz2>
  402dff:	83 c3 02             	add    $0x2,%ebx
  402e02:	39 eb                	cmp    %ebp,%ebx
  402e04:	7e ba                	jle    402dc0 <cfftz+0x50>
  402e06:	89 e8                	mov    %ebp,%eax
  402e08:	c1 e8 1f             	shr    $0x1f,%eax
  402e0b:	01 e8                	add    %ebp,%eax
  402e0d:	83 e0 fe             	and    $0xfffffffe,%eax
  402e10:	29 c5                	sub    %eax,%ebp
  402e12:	83 fd 01             	cmp    $0x1,%ebp
  402e15:	0f 85 fb 00 00 00    	jne    402f16 <cfftz+0x1a6>
  402e1b:	45 85 ff             	test   %r15d,%r15d
  402e1e:	0f 8e f2 00 00 00    	jle    402f16 <cfftz+0x1a6>
  402e24:	8b 05 6e 77 d3 00    	mov    0xd3776e(%rip),%eax        # 113a598 <fftblock>
  402e2a:	85 c0                	test   %eax,%eax
  402e2c:	0f 8e e4 00 00 00    	jle    402f16 <cfftz+0x1a6>
  402e32:	45 89 f8             	mov    %r15d,%r8d
  402e35:	4c 8d 48 ff          	lea    -0x1(%rax),%r9
  402e39:	41 89 c2             	mov    %eax,%r10d
  402e3c:	41 83 e2 03          	and    $0x3,%r10d
  402e40:	83 e0 fc             	and    $0xfffffffc,%eax
  402e43:	4c 89 d7             	mov    %r10,%rdi
  402e46:	48 c1 e7 04          	shl    $0x4,%rdi
  402e4a:	45 31 db             	xor    %r11d,%r11d
  402e4d:	49 8d 5e 30          	lea    0x30(%r14),%rbx
  402e51:	49 8d 4d 30          	lea    0x30(%r13),%rcx
  402e55:	eb 32                	jmp    402e89 <cfftz+0x119>
  402e57:	66 0f 1f 84 00 00 00 	nopw   0x0(%rax,%rax,1)
  402e5e:	00 00 
  402e60:	49 83 c3 01          	add    $0x1,%r11
  402e64:	48 81 c3 20 01 00 00 	add    $0x120,%rbx
  402e6b:	48 81 c1 20 01 00 00 	add    $0x120,%rcx
  402e72:	49 81 c5 20 01 00 00 	add    $0x120,%r13
  402e79:	49 81 c6 20 01 00 00 	add    $0x120,%r14
  402e80:	4d 39 c3             	cmp    %r8,%r11
  402e83:	0f 84 8d 00 00 00    	je     402f16 <cfftz+0x1a6>
  402e89:	49 83 f9 03          	cmp    $0x3,%r9
  402e8d:	73 11                	jae    402ea0 <cfftz+0x130>
  402e8f:	31 d2                	xor    %edx,%edx
  402e91:	eb 50                	jmp    402ee3 <cfftz+0x173>
  402e93:	66 2e 0f 1f 84 00 00 	nopw   %cs:0x0(%rax,%rax,1)
  402e9a:	00 00 00 
  402e9d:	0f 1f 00             	nopl   (%rax)
  402ea0:	31 f6                	xor    %esi,%esi
  402ea2:	31 d2                	xor    %edx,%edx
  402ea4:	66 2e 0f 1f 84 00 00 	nopw   %cs:0x0(%rax,%rax,1)
  402eab:	00 00 00 
  402eae:	66 90                	xchg   %ax,%ax
  402eb0:	0f 10 44 33 d0       	movups -0x30(%rbx,%rsi,1),%xmm0
  402eb5:	0f 11 44 31 d0       	movups %xmm0,-0x30(%rcx,%rsi,1)
  402eba:	0f 10 44 33 e0       	movups -0x20(%rbx,%rsi,1),%xmm0
  402ebf:	0f 11 44 31 e0       	movups %xmm0,-0x20(%rcx,%rsi,1)
  402ec4:	0f 10 44 33 f0       	movups -0x10(%rbx,%rsi,1),%xmm0
  402ec9:	0f 11 44 31 f0       	movups %xmm0,-0x10(%rcx,%rsi,1)
  402ece:	0f 10 04 33          	movups (%rbx,%rsi,1),%xmm0
  402ed2:	0f 11 04 31          	movups %xmm0,(%rcx,%rsi,1)
  402ed6:	48 83 c2 04          	add    $0x4,%rdx
  402eda:	48 83 c6 40          	add    $0x40,%rsi
  402ede:	48 39 d0             	cmp    %rdx,%rax
  402ee1:	75 cd                	jne    402eb0 <cfftz+0x140>
  402ee3:	4d 85 d2             	test   %r10,%r10
  402ee6:	0f 84 74 ff ff ff    	je     402e60 <cfftz+0xf0>
  402eec:	48 c1 e2 04          	shl    $0x4,%rdx
  402ef0:	4a 8d 34 2a          	lea    (%rdx,%r13,1),%rsi
  402ef4:	4c 01 f2             	add    %r14,%rdx
  402ef7:	31 ed                	xor    %ebp,%ebp
  402ef9:	0f 1f 80 00 00 00 00 	nopl   0x0(%rax)
  402f00:	0f 10 04 2a          	movups (%rdx,%rbp,1),%xmm0
  402f04:	0f 11 04 2e          	movups %xmm0,(%rsi,%rbp,1)
  402f08:	48 83 c5 10          	add    $0x10,%rbp
  402f0c:	48 39 ef             	cmp    %rbp,%rdi
  402f0f:	75 ef                	jne    402f00 <cfftz+0x190>
  402f11:	e9 4a ff ff ff       	jmpq   402e60 <cfftz+0xf0>
  402f16:	48 83 c4 08          	add    $0x8,%rsp
  402f1a:	5b                   	pop    %rbx
  402f1b:	41 5c                	pop    %r12
  402f1d:	41 5d                	pop    %r13
  402f1f:	41 5e                	pop    %r14
  402f21:	41 5f                	pop    %r15
  402f23:	5d                   	pop    %rbp
  402f24:	c3                   	retq   
  402f25:	bf 0c 42 40 00       	mov    $0x40420c,%edi
  402f2a:	44 89 e6             	mov    %r12d,%esi
  402f2d:	89 ea                	mov    %ebp,%edx
  402f2f:	31 c0                	xor    %eax,%eax
  402f31:	e8 0a e1 ff ff       	callq  401040 <printf@plt>
  402f36:	bf 01 00 00 00       	mov    $0x1,%edi
  402f3b:	e8 40 e1 ff ff       	callq  401080 <exit@plt>

0000000000402f40 <fftz2>:
  402f40:	55                   	push   %rbp
  402f41:	41 57                	push   %r15
  402f43:	41 56                	push   %r14
  402f45:	41 55                	push   %r13
  402f47:	41 54                	push   %r12
  402f49:	53                   	push   %rbx
  402f4a:	48 83 ec 58          	sub    $0x58,%rsp
  402f4e:	89 cb                	mov    %ecx,%ebx
  402f50:	29 f2                	sub    %esi,%edx
  402f52:	8d 4a ff             	lea    -0x1(%rdx),%ecx
  402f55:	bd 02 00 00 00       	mov    $0x2,%ebp
  402f5a:	b8 02 00 00 00       	mov    $0x2,%eax
  402f5f:	d3 e0                	shl    %cl,%eax
  402f61:	83 fa 01             	cmp    $0x1,%edx
  402f64:	41 bf 01 00 00 00    	mov    $0x1,%r15d
  402f6a:	44 0f 43 f8          	cmovae %eax,%r15d
  402f6e:	8d 4e fe             	lea    -0x2(%rsi),%ecx
  402f71:	d3 e5                	shl    %cl,%ebp
  402f73:	4c 89 4c 24 10       	mov    %r9,0x10(%rsp)
  402f78:	45 89 c6             	mov    %r8d,%r14d
  402f7b:	89 7c 24 24          	mov    %edi,0x24(%rsp)
  402f7f:	83 fe 01             	cmp    $0x1,%esi
  402f82:	0f 44 ee             	cmove  %esi,%ebp
  402f85:	48 89 6c 24 28       	mov    %rbp,0x28(%rsp)
  402f8a:	31 c0                	xor    %eax,%eax
  402f8c:	e8 df 06 00 00       	callq  403670 <region_lower_bound>
  402f91:	48 89 c5             	mov    %rax,%rbp
  402f94:	31 c0                	xor    %eax,%eax
  402f96:	e8 e5 06 00 00       	callq  403680 <region_upper_bound>
  402f9b:	45 85 ff             	test   %r15d,%r15d
  402f9e:	0f 8e 38 02 00 00    	jle    4031dc <bounds_ok6+0x90>
  402fa4:	4c 8b 94 24 90 00 00 	mov    0x90(%rsp),%r10
  402fab:	00 
  402fac:	89 d9                	mov    %ebx,%ecx
  402fae:	c1 e9 1f             	shr    $0x1f,%ecx
  402fb1:	01 d9                	add    %ebx,%ecx
  402fb3:	d1 f9                	sar    %ecx
  402fb5:	89 4c 24 0c          	mov    %ecx,0xc(%rsp)
  402fb9:	4c 8b 4c 24 28       	mov    0x28(%rsp),%r9
  402fbe:	43 8d 0c 09          	lea    (%r9,%r9,1),%ecx
  402fc2:	45 85 c9             	test   %r9d,%r9d
  402fc5:	41 0f 9e c0          	setle  %r8b
  402fc9:	45 85 f6             	test   %r14d,%r14d
  402fcc:	41 0f 9e c4          	setle  %r12b
  402fd0:	44 89 fa             	mov    %r15d,%edx
  402fd3:	89 4c 24 20          	mov    %ecx,0x20(%rsp)
  402fd7:	4c 63 d9             	movslq %ecx,%r11
  402fda:	49 63 c9             	movslq %r9d,%rcx
  402fdd:	89 cf                	mov    %ecx,%edi
  402fdf:	44 89 f6             	mov    %r14d,%esi
  402fe2:	45 08 c4             	or     %r8b,%r12b
  402fe5:	44 88 64 24 07       	mov    %r12b,0x7(%rsp)
  402fea:	48 c1 e1 05          	shl    $0x5,%rcx
  402fee:	48 8d 0c c9          	lea    (%rcx,%rcx,8),%rcx
  402ff2:	48 89 4c 24 40       	mov    %rcx,0x40(%rsp)
  402ff7:	49 c1 e3 05          	shl    $0x5,%r11
  402ffb:	4b 8d 0c db          	lea    (%r11,%r11,8),%rcx
  402fff:	48 89 4c 24 38       	mov    %rcx,0x38(%rsp)
  403004:	48 c1 e6 04          	shl    $0x4,%rsi
  403008:	31 db                	xor    %ebx,%ebx
  40300a:	66 0f 28 05 ee 10 00 	movapd 0x10ee(%rip),%xmm0        # 404100 <_IO_stdin_used+0x100>
  403011:	00 
  403012:	44 89 c9             	mov    %r9d,%ecx
  403015:	44 89 4c 24 08       	mov    %r9d,0x8(%rsp)
  40301a:	4c 89 54 24 30       	mov    %r10,0x30(%rsp)
  40301f:	4d 8d 42 08          	lea    0x8(%r10),%r8
  403023:	48 8b 4c 24 10       	mov    0x10(%rsp),%rcx
  403028:	48 89 4c 24 18       	mov    %rcx,0x18(%rsp)
  40302d:	48 89 54 24 48       	mov    %rdx,0x48(%rsp)
  403032:	eb 54                	jmp    403088 <fftz2+0x148>
  403034:	66 2e 0f 1f 84 00 00 	nopw   %cs:0x0(%rax,%rax,1)
  40303b:	00 00 00 
  40303e:	66 90                	xchg   %ax,%ax
  403040:	48 8b 5c 24 50       	mov    0x50(%rsp),%rbx
  403045:	48 83 c3 01          	add    $0x1,%rbx
  403049:	48 8b 4c 24 18       	mov    0x18(%rsp),%rcx
  40304e:	48 03 4c 24 40       	add    0x40(%rsp),%rcx
  403053:	48 89 4c 24 18       	mov    %rcx,0x18(%rsp)
  403058:	8b 4c 24 0c          	mov    0xc(%rsp),%ecx
  40305c:	03 4c 24 28          	add    0x28(%rsp),%ecx
  403060:	89 4c 24 0c          	mov    %ecx,0xc(%rsp)
  403064:	48 8b 4c 24 38       	mov    0x38(%rsp),%rcx
  403069:	48 01 4c 24 30       	add    %rcx,0x30(%rsp)
  40306e:	8b 4c 24 08          	mov    0x8(%rsp),%ecx
  403072:	03 4c 24 20          	add    0x20(%rsp),%ecx
  403076:	89 4c 24 08          	mov    %ecx,0x8(%rsp)
  40307a:	48 8b 54 24 48       	mov    0x48(%rsp),%rdx
  40307f:	48 39 d3             	cmp    %rdx,%rbx
  403082:	0f 84 54 01 00 00    	je     4031dc <bounds_ok6+0x90>
  403088:	48 01 da             	add    %rbx,%rdx
  40308b:	48 c1 e2 04          	shl    $0x4,%rdx
  40308f:	48 8d 8a a0 a0 13 01 	lea    0x113a0a0(%rdx),%rcx
  403096:	48 39 c1             	cmp    %rax,%rcx
  403099:	3e 76 02             	jbe,pt 40309e <ub_ok3>
  40309c:	0f 0b                	ud2    

000000000040309e <ub_ok3>:
  40309e:	48 39 e9             	cmp    %rbp,%rcx
  4030a1:	3e 73 02             	jae,pt 4030a6 <bounds_ok3>
  4030a4:	0f 0b                	ud2    

00000000004030a6 <bounds_ok3>:
  4030a6:	f2 0f 10 8a a0 a0 13 	movsd  0x113a0a0(%rdx),%xmm1
  4030ad:	01 
  4030ae:	f2 0f 10 92 a8 a0 13 	movsd  0x113a0a8(%rdx),%xmm2
  4030b5:	01 
  4030b6:	83 7c 24 24 00       	cmpl   $0x0,0x24(%rsp)
  4030bb:	48 89 5c 24 50       	mov    %rbx,0x50(%rsp)
  4030c0:	7f 04                	jg     4030c6 <bounds_ok3+0x20>
  4030c2:	66 0f 57 d0          	xorpd  %xmm0,%xmm2
  4030c6:	48 8b 5c 24 10       	mov    0x10(%rsp),%rbx
  4030cb:	80 7c 24 07 00       	cmpb   $0x0,0x7(%rsp)
  4030d0:	0f 85 6a ff ff ff    	jne    403040 <fftz2+0x100>
  4030d6:	44 8b 74 24 08       	mov    0x8(%rsp),%r14d
  4030db:	4c 8b 64 24 30       	mov    0x30(%rsp),%r12
  4030e0:	8b 54 24 0c          	mov    0xc(%rsp),%edx
  4030e4:	4c 8b 6c 24 18       	mov    0x18(%rsp),%r13
  4030e9:	45 31 db             	xor    %r11d,%r11d
  4030ec:	0f 1f 40 00          	nopl   0x0(%rax)
  4030f0:	48 63 ca             	movslq %edx,%rcx
  4030f3:	4c 8d 3c c9          	lea    (%rcx,%rcx,8),%r15
  4030f7:	49 c1 e7 05          	shl    $0x5,%r15
  4030fb:	49 01 df             	add    %rbx,%r15
  4030fe:	49 63 ce             	movslq %r14d,%rcx
  403101:	4c 8d 0c c9          	lea    (%rcx,%rcx,8),%r9
  403105:	49 c1 e1 05          	shl    $0x5,%r9
  403109:	4d 01 c1             	add    %r8,%r9
  40310c:	45 31 d2             	xor    %r10d,%r10d
  40310f:	90                   	nop
  403110:	4b 8d 0c 2a          	lea    (%r10,%r13,1),%rcx
  403114:	48 39 c1             	cmp    %rax,%rcx
  403117:	3e 76 02             	jbe,pt 40311c <ub_ok4>
  40311a:	0f 0b                	ud2    

000000000040311c <ub_ok4>:
  40311c:	48 39 e9             	cmp    %rbp,%rcx
  40311f:	3e 73 02             	jae,pt 403124 <bounds_ok4>
  403122:	0f 0b                	ud2    

0000000000403124 <bounds_ok4>:
  403124:	4b 8d 0c 17          	lea    (%r15,%r10,1),%rcx
  403128:	48 39 c1             	cmp    %rax,%rcx
  40312b:	3e 76 02             	jbe,pt 403130 <ub_ok5>
  40312e:	0f 0b                	ud2    

0000000000403130 <ub_ok5>:
  403130:	48 39 e9             	cmp    %rbp,%rcx
  403133:	3e 73 02             	jae,pt 403138 <bounds_ok5>
  403136:	0f 0b                	ud2    

0000000000403138 <bounds_ok5>:
  403138:	4b 8d 0c 14          	lea    (%r12,%r10,1),%rcx
  40313c:	48 39 c1             	cmp    %rax,%rcx
  40313f:	3e 76 02             	jbe,pt 403144 <ub_ok6>
  403142:	0f 0b                	ud2    

0000000000403144 <ub_ok6>:
  403144:	48 39 e9             	cmp    %rbp,%rcx
  403147:	3e 73 02             	jae,pt 40314c <bounds_ok6>
  40314a:	0f 0b                	ud2    

000000000040314c <bounds_ok6>:
  40314c:	66 43 0f 10 5c 15 00 	movupd 0x0(%r13,%r10,1),%xmm3
  403153:	66 43 0f 10 24 17    	movupd (%r15,%r10,1),%xmm4
  403159:	66 0f 28 eb          	movapd %xmm3,%xmm5
  40315d:	66 0f 58 ec          	addpd  %xmm4,%xmm5
  403161:	66 43 0f 11 2c 14    	movupd %xmm5,(%r12,%r10,1)
  403167:	66 0f 28 eb          	movapd %xmm3,%xmm5
  40316b:	f2 0f 5c ec          	subsd  %xmm4,%xmm5
  40316f:	66 0f 28 f1          	movapd %xmm1,%xmm6
  403173:	f2 0f 59 f5          	mulsd  %xmm5,%xmm6
  403177:	66 0f 15 db          	unpckhpd %xmm3,%xmm3
  40317b:	66 0f 15 e4          	unpckhpd %xmm4,%xmm4
  40317f:	f2 0f 5c dc          	subsd  %xmm4,%xmm3
  403183:	66 0f 28 e2          	movapd %xmm2,%xmm4
  403187:	f2 0f 59 e3          	mulsd  %xmm3,%xmm4
  40318b:	f2 0f 5c f4          	subsd  %xmm4,%xmm6
  40318f:	f2 43 0f 11 74 11 f8 	movsd  %xmm6,-0x8(%r9,%r10,1)
  403196:	f2 0f 59 d9          	mulsd  %xmm1,%xmm3
  40319a:	f2 0f 59 ea          	mulsd  %xmm2,%xmm5
  40319e:	f2 0f 58 eb          	addsd  %xmm3,%xmm5
  4031a2:	f2 43 0f 11 2c 11    	movsd  %xmm5,(%r9,%r10,1)
  4031a8:	49 83 c2 10          	add    $0x10,%r10
  4031ac:	4c 39 d6             	cmp    %r10,%rsi
  4031af:	0f 85 5b ff ff ff    	jne    403110 <bounds_ok3+0x6a>
  4031b5:	49 83 c3 01          	add    $0x1,%r11
  4031b9:	49 81 c5 20 01 00 00 	add    $0x120,%r13
  4031c0:	83 c2 01             	add    $0x1,%edx
  4031c3:	49 81 c4 20 01 00 00 	add    $0x120,%r12
  4031ca:	41 83 c6 01          	add    $0x1,%r14d
  4031ce:	49 39 fb             	cmp    %rdi,%r11
  4031d1:	0f 85 19 ff ff ff    	jne    4030f0 <bounds_ok3+0x4a>
  4031d7:	e9 64 fe ff ff       	jmpq   403040 <fftz2+0x100>
  4031dc:	48 83 c4 58          	add    $0x58,%rsp
  4031e0:	5b                   	pop    %rbx
  4031e1:	41 5c                	pop    %r12
  4031e3:	41 5d                	pop    %r13
  4031e5:	41 5e                	pop    %r14
  4031e7:	41 5f                	pop    %r15
  4031e9:	5d                   	pop    %rbp
  4031ea:	c3                   	retq   
  4031eb:	0f 1f 44 00 00       	nopl   0x0(%rax,%rax,1)

00000000004031f0 <randlc>:
  4031f0:	f2 0f 10 1d 38 11 00 	movsd  0x1138(%rip),%xmm3        # 404330 <_IO_stdin_used+0x330>
  4031f7:	00 
  4031f8:	66 0f 28 c8          	movapd %xmm0,%xmm1
  4031fc:	f2 0f 59 cb          	mulsd  %xmm3,%xmm1
  403200:	f2 0f 2c c1          	cvttsd2si %xmm1,%eax
  403204:	f2 0f 2a d0          	cvtsi2sd %eax,%xmm2
  403208:	f2 0f 10 25 28 11 00 	movsd  0x1128(%rip),%xmm4        # 404338 <_IO_stdin_used+0x338>
  40320f:	00 
  403210:	66 0f 28 ca          	movapd %xmm2,%xmm1
  403214:	f2 0f 59 cc          	mulsd  %xmm4,%xmm1
  403218:	f2 0f 5c c1          	subsd  %xmm1,%xmm0
  40321c:	f2 0f 10 0f          	movsd  (%rdi),%xmm1
  403220:	66 0f 28 e9          	movapd %xmm1,%xmm5
  403224:	f2 0f 59 eb          	mulsd  %xmm3,%xmm5
  403228:	f2 0f 2c c5          	cvttsd2si %xmm5,%eax
  40322c:	0f 57 ed             	xorps  %xmm5,%xmm5
  40322f:	f2 0f 2a e8          	cvtsi2sd %eax,%xmm5
  403233:	66 0f 28 f0          	movapd %xmm0,%xmm6
  403237:	f2 0f 59 f5          	mulsd  %xmm5,%xmm6
  40323b:	f2 0f 59 ec          	mulsd  %xmm4,%xmm5
  40323f:	f2 0f 5c cd          	subsd  %xmm5,%xmm1
  403243:	f2 0f 59 d1          	mulsd  %xmm1,%xmm2
  403247:	f2 0f 58 d6          	addsd  %xmm6,%xmm2
  40324b:	f2 0f 59 da          	mulsd  %xmm2,%xmm3
  40324f:	f2 0f 2c c3          	cvttsd2si %xmm3,%eax
  403253:	0f 57 db             	xorps  %xmm3,%xmm3
  403256:	f2 0f 2a d8          	cvtsi2sd %eax,%xmm3
  40325a:	f2 0f 59 dc          	mulsd  %xmm4,%xmm3
  40325e:	f2 0f 5c d3          	subsd  %xmm3,%xmm2
  403262:	f2 0f 59 d4          	mulsd  %xmm4,%xmm2
  403266:	f2 0f 59 c8          	mulsd  %xmm0,%xmm1
  40326a:	f2 0f 58 ca          	addsd  %xmm2,%xmm1
  40326e:	f2 0f 10 15 ca 10 00 	movsd  0x10ca(%rip),%xmm2        # 404340 <_IO_stdin_used+0x340>
  403275:	00 
  403276:	66 0f 28 c1          	movapd %xmm1,%xmm0
  40327a:	f2 0f 59 c2          	mulsd  %xmm2,%xmm0
  40327e:	f2 0f 2c c0          	cvttsd2si %xmm0,%eax
  403282:	0f 57 c0             	xorps  %xmm0,%xmm0
  403285:	f2 0f 2a c0          	cvtsi2sd %eax,%xmm0
  403289:	f2 0f 59 05 b7 10 00 	mulsd  0x10b7(%rip),%xmm0        # 404348 <_IO_stdin_used+0x348>
  403290:	00 
  403291:	f2 0f 58 c1          	addsd  %xmm1,%xmm0
  403295:	f2 0f 11 07          	movsd  %xmm0,(%rdi)
  403299:	f2 0f 59 c2          	mulsd  %xmm2,%xmm0
  40329d:	c3                   	retq   
  40329e:	66 90                	xchg   %ax,%ax

00000000004032a0 <vranlc>:
  4032a0:	f2 0f 10 0e          	movsd  (%rsi),%xmm1
  4032a4:	85 ff                	test   %edi,%edi
  4032a6:	0f 8e e0 00 00 00    	jle    40338c <vranlc+0xec>
  4032ac:	f2 0f 10 15 7c 10 00 	movsd  0x107c(%rip),%xmm2        # 404330 <_IO_stdin_used+0x330>
  4032b3:	00 
  4032b4:	f2 0f 59 d0          	mulsd  %xmm0,%xmm2
  4032b8:	f2 0f 2c c2          	cvttsd2si %xmm2,%eax
  4032bc:	0f 57 d2             	xorps  %xmm2,%xmm2
  4032bf:	f2 0f 2a d0          	cvtsi2sd %eax,%xmm2
  4032c3:	f2 0f 10 35 85 10 00 	movsd  0x1085(%rip),%xmm6        # 404350 <_IO_stdin_used+0x350>
  4032ca:	00 
  4032cb:	f2 0f 59 f2          	mulsd  %xmm2,%xmm6
  4032cf:	f2 0f 58 f0          	addsd  %xmm0,%xmm6
  4032d3:	83 c7 01             	add    $0x1,%edi
  4032d6:	b8 01 00 00 00       	mov    $0x1,%eax
  4032db:	f2 0f 10 05 4d 10 00 	movsd  0x104d(%rip),%xmm0        # 404330 <_IO_stdin_used+0x330>
  4032e2:	00 
  4032e3:	f2 0f 10 25 4d 10 00 	movsd  0x104d(%rip),%xmm4        # 404338 <_IO_stdin_used+0x338>
  4032ea:	00 
  4032eb:	f2 0f 10 2d 4d 10 00 	movsd  0x104d(%rip),%xmm5        # 404340 <_IO_stdin_used+0x340>
  4032f2:	00 
  4032f3:	f2 44 0f 10 05 4c 10 	movsd  0x104c(%rip),%xmm8        # 404348 <_IO_stdin_used+0x348>
  4032fa:	00 00 
  4032fc:	0f 1f 40 00          	nopl   0x0(%rax)
  403300:	66 0f 28 f9          	movapd %xmm1,%xmm7
  403304:	f2 0f 59 f8          	mulsd  %xmm0,%xmm7
  403308:	f2 0f 2c cf          	cvttsd2si %xmm7,%ecx
  40330c:	0f 57 ff             	xorps  %xmm7,%xmm7
  40330f:	f2 0f 2a f9          	cvtsi2sd %ecx,%xmm7
  403313:	66 0f 28 de          	movapd %xmm6,%xmm3
  403317:	f2 0f 59 df          	mulsd  %xmm7,%xmm3
  40331b:	f2 0f 59 fc          	mulsd  %xmm4,%xmm7
  40331f:	f2 0f 5c cf          	subsd  %xmm7,%xmm1
  403323:	66 0f 28 fe          	movapd %xmm6,%xmm7
  403327:	f2 0f 59 f9          	mulsd  %xmm1,%xmm7
  40332b:	f2 0f 59 ca          	mulsd  %xmm2,%xmm1
  40332f:	f2 0f 58 cb          	addsd  %xmm3,%xmm1
  403333:	66 0f 28 d9          	movapd %xmm1,%xmm3
  403337:	f2 0f 59 d8          	mulsd  %xmm0,%xmm3
  40333b:	f2 0f 2c cb          	cvttsd2si %xmm3,%ecx
  40333f:	0f 57 db             	xorps  %xmm3,%xmm3
  403342:	f2 0f 2a d9          	cvtsi2sd %ecx,%xmm3
  403346:	f2 0f 59 dc          	mulsd  %xmm4,%xmm3
  40334a:	f2 0f 5c cb          	subsd  %xmm3,%xmm1
  40334e:	f2 0f 59 cc          	mulsd  %xmm4,%xmm1
  403352:	f2 0f 58 cf          	addsd  %xmm7,%xmm1
  403356:	66 0f 28 d9          	movapd %xmm1,%xmm3
  40335a:	f2 0f 59 dd          	mulsd  %xmm5,%xmm3
  40335e:	f2 0f 2c cb          	cvttsd2si %xmm3,%ecx
  403362:	0f 57 db             	xorps  %xmm3,%xmm3
  403365:	f2 0f 2a d9          	cvtsi2sd %ecx,%xmm3
  403369:	f2 41 0f 59 d8       	mulsd  %xmm8,%xmm3
  40336e:	f2 0f 58 cb          	addsd  %xmm3,%xmm1
  403372:	66 0f 28 d9          	movapd %xmm1,%xmm3
  403376:	f2 0f 59 dd          	mulsd  %xmm5,%xmm3
  40337a:	f2 0f 11 1c c2       	movsd  %xmm3,(%rdx,%rax,8)
  40337f:	48 83 c0 01          	add    $0x1,%rax
  403383:	48 39 c7             	cmp    %rax,%rdi
  403386:	0f 85 74 ff ff ff    	jne    403300 <vranlc+0x60>
  40338c:	f2 0f 11 0e          	movsd  %xmm1,(%rsi)
  403390:	c3                   	retq   
  403391:	66 2e 0f 1f 84 00 00 	nopw   %cs:0x0(%rax,%rax,1)
  403398:	00 00 00 
  40339b:	0f 1f 44 00 00       	nopl   0x0(%rax,%rax,1)

00000000004033a0 <c_print_results>:
  4033a0:	55                   	push   %rbp
  4033a1:	41 57                	push   %r15
  4033a3:	41 56                	push   %r14
  4033a5:	41 55                	push   %r13
  4033a7:	41 54                	push   %r12
  4033a9:	53                   	push   %rbx
  4033aa:	48 83 ec 68          	sub    $0x68,%rsp
  4033ae:	f2 0f 11 4c 24 18    	movsd  %xmm1,0x18(%rsp)
  4033b4:	f2 0f 11 44 24 10    	movsd  %xmm0,0x10(%rsp)
  4033ba:	44 89 cb             	mov    %r9d,%ebx
  4033bd:	45 89 c7             	mov    %r8d,%r15d
  4033c0:	41 89 cc             	mov    %ecx,%r12d
  4033c3:	41 89 d6             	mov    %edx,%r14d
  4033c6:	41 89 f5             	mov    %esi,%r13d
  4033c9:	48 89 fe             	mov    %rdi,%rsi
  4033cc:	48 8b 84 24 f8 00 00 	mov    0xf8(%rsp),%rax
  4033d3:	00 
  4033d4:	48 89 44 24 60       	mov    %rax,0x60(%rsp)
  4033d9:	48 8b 84 24 f0 00 00 	mov    0xf0(%rsp),%rax
  4033e0:	00 
  4033e1:	48 89 44 24 58       	mov    %rax,0x58(%rsp)
  4033e6:	48 8b 84 24 e8 00 00 	mov    0xe8(%rsp),%rax
  4033ed:	00 
  4033ee:	48 89 44 24 50       	mov    %rax,0x50(%rsp)
  4033f3:	48 8b 84 24 e0 00 00 	mov    0xe0(%rsp),%rax
  4033fa:	00 
  4033fb:	48 89 44 24 48       	mov    %rax,0x48(%rsp)
  403400:	48 8b 84 24 d8 00 00 	mov    0xd8(%rsp),%rax
  403407:	00 
  403408:	48 89 44 24 40       	mov    %rax,0x40(%rsp)
  40340d:	48 8b 84 24 d0 00 00 	mov    0xd0(%rsp),%rax
  403414:	00 
  403415:	48 89 44 24 38       	mov    %rax,0x38(%rsp)
  40341a:	48 8b 84 24 c8 00 00 	mov    0xc8(%rsp),%rax
  403421:	00 
  403422:	48 89 44 24 30       	mov    %rax,0x30(%rsp)
  403427:	48 8b 84 24 c0 00 00 	mov    0xc0(%rsp),%rax
  40342e:	00 
  40342f:	48 89 44 24 28       	mov    %rax,0x28(%rsp)
  403434:	48 8b 84 24 b8 00 00 	mov    0xb8(%rsp),%rax
  40343b:	00 
  40343c:	48 89 44 24 20       	mov    %rax,0x20(%rsp)
  403441:	8b 84 24 b0 00 00 00 	mov    0xb0(%rsp),%eax
  403448:	89 44 24 04          	mov    %eax,0x4(%rsp)
  40344c:	48 8b 84 24 a8 00 00 	mov    0xa8(%rsp),%rax
  403453:	00 
  403454:	48 89 44 24 08       	mov    %rax,0x8(%rsp)
  403459:	8b ac 24 a0 00 00 00 	mov    0xa0(%rsp),%ebp
  403460:	bf 58 43 40 00       	mov    $0x404358,%edi
  403465:	31 c0                	xor    %eax,%eax
  403467:	e8 d4 db ff ff       	callq  401040 <printf@plt>
  40346c:	bf 73 43 40 00       	mov    $0x404373,%edi
  403471:	44 89 ee             	mov    %r13d,%esi
  403474:	31 c0                	xor    %eax,%eax
  403476:	e8 c5 db ff ff       	callq  401040 <printf@plt>
  40347b:	44 89 f8             	mov    %r15d,%eax
  40347e:	44 09 e0             	or     %r12d,%eax
  403481:	74 17                	je     40349a <c_print_results+0xfa>
  403483:	bf c6 43 40 00       	mov    $0x4043c6,%edi
  403488:	44 89 f6             	mov    %r14d,%esi
  40348b:	44 89 e2             	mov    %r12d,%edx
  40348e:	44 89 f9             	mov    %r15d,%ecx
  403491:	31 c0                	xor    %eax,%eax
  403493:	e8 a8 db ff ff       	callq  401040 <printf@plt>
  403498:	eb 0f                	jmp    4034a9 <c_print_results+0x109>
  40349a:	bf a1 43 40 00       	mov    $0x4043a1,%edi
  40349f:	44 89 f6             	mov    %r14d,%esi
  4034a2:	31 c0                	xor    %eax,%eax
  4034a4:	e8 97 db ff ff       	callq  401040 <printf@plt>
  4034a9:	bf f3 43 40 00       	mov    $0x4043f3,%edi
  4034ae:	89 de                	mov    %ebx,%esi
  4034b0:	31 c0                	xor    %eax,%eax
  4034b2:	e8 89 db ff ff       	callq  401040 <printf@plt>
  4034b7:	bf 18 44 40 00       	mov    $0x404418,%edi
  4034bc:	89 ee                	mov    %ebp,%esi
  4034be:	31 c0                	xor    %eax,%eax
  4034c0:	e8 7b db ff ff       	callq  401040 <printf@plt>
  4034c5:	bf 3d 44 40 00       	mov    $0x40443d,%edi
  4034ca:	f2 0f 10 44 24 10    	movsd  0x10(%rsp),%xmm0
  4034d0:	b0 01                	mov    $0x1,%al
  4034d2:	e8 69 db ff ff       	callq  401040 <printf@plt>
  4034d7:	bf 64 44 40 00       	mov    $0x404464,%edi
  4034dc:	f2 0f 10 44 24 18    	movsd  0x18(%rsp),%xmm0
  4034e2:	b0 01                	mov    $0x1,%al
  4034e4:	e8 57 db ff ff       	callq  401040 <printf@plt>
  4034e9:	bf 8b 44 40 00       	mov    $0x40448b,%edi
  4034ee:	48 8b 74 24 08       	mov    0x8(%rsp),%rsi
  4034f3:	31 c0                	xor    %eax,%eax
  4034f5:	e8 46 db ff ff       	callq  401040 <printf@plt>
  4034fa:	83 7c 24 04 00       	cmpl   $0x0,0x4(%rsp)
  4034ff:	b8 8d 45 40 00       	mov    $0x40458d,%eax
  403504:	bf cc 45 40 00       	mov    $0x4045cc,%edi
  403509:	48 0f 44 f8          	cmove  %rax,%rdi
  40350d:	e8 1e db ff ff       	callq  401030 <puts@plt>
  403512:	bf a4 44 40 00       	mov    $0x4044a4,%edi
  403517:	48 8b 74 24 20       	mov    0x20(%rsp),%rsi
  40351c:	31 c0                	xor    %eax,%eax
  40351e:	e8 1d db ff ff       	callq  401040 <printf@plt>
  403523:	bf c7 44 40 00       	mov    $0x4044c7,%edi
  403528:	48 8b 74 24 28       	mov    0x28(%rsp),%rsi
  40352d:	31 c0                	xor    %eax,%eax
  40352f:	e8 0c db ff ff       	callq  401040 <printf@plt>
  403534:	bf b9 45 40 00       	mov    $0x4045b9,%edi
  403539:	e8 f2 da ff ff       	callq  401030 <puts@plt>
  40353e:	bf ec 44 40 00       	mov    $0x4044ec,%edi
  403543:	48 8b 74 24 30       	mov    0x30(%rsp),%rsi
  403548:	31 c0                	xor    %eax,%eax
  40354a:	e8 f1 da ff ff       	callq  401040 <printf@plt>
  40354f:	bf 03 45 40 00       	mov    $0x404503,%edi
  403554:	48 8b 74 24 38       	mov    0x38(%rsp),%rsi
  403559:	31 c0                	xor    %eax,%eax
  40355b:	e8 e0 da ff ff       	callq  401040 <printf@plt>
  403560:	bf 1a 45 40 00       	mov    $0x40451a,%edi
  403565:	48 8b 74 24 40       	mov    0x40(%rsp),%rsi
  40356a:	31 c0                	xor    %eax,%eax
  40356c:	e8 cf da ff ff       	callq  401040 <printf@plt>
  403571:	bf 31 45 40 00       	mov    $0x404531,%edi
  403576:	48 8b 74 24 48       	mov    0x48(%rsp),%rsi
  40357b:	31 c0                	xor    %eax,%eax
  40357d:	e8 be da ff ff       	callq  401040 <printf@plt>
  403582:	bf 48 45 40 00       	mov    $0x404548,%edi
  403587:	48 8b 74 24 50       	mov    0x50(%rsp),%rsi
  40358c:	31 c0                	xor    %eax,%eax
  40358e:	e8 ad da ff ff       	callq  401040 <printf@plt>
  403593:	bf 5f 45 40 00       	mov    $0x40455f,%edi
  403598:	48 8b 74 24 58       	mov    0x58(%rsp),%rsi
  40359d:	31 c0                	xor    %eax,%eax
  40359f:	e8 9c da ff ff       	callq  401040 <printf@plt>
  4035a4:	bf 76 45 40 00       	mov    $0x404576,%edi
  4035a9:	48 8b 74 24 60       	mov    0x60(%rsp),%rsi
  4035ae:	31 c0                	xor    %eax,%eax
  4035b0:	48 83 c4 68          	add    $0x68,%rsp
  4035b4:	5b                   	pop    %rbx
  4035b5:	41 5c                	pop    %r12
  4035b7:	41 5d                	pop    %r13
  4035b9:	41 5e                	pop    %r14
  4035bb:	41 5f                	pop    %r15
  4035bd:	5d                   	pop    %rbp
  4035be:	e9 7d da ff ff       	jmpq   401040 <printf@plt>
  4035c3:	66 2e 0f 1f 84 00 00 	nopw   %cs:0x0(%rax,%rax,1)
  4035ca:	00 00 00 
  4035cd:	0f 1f 00             	nopl   (%rax)

00000000004035d0 <elapsed_time>:
  4035d0:	50                   	push   %rax
  4035d1:	48 89 e7             	mov    %rsp,%rdi
  4035d4:	e8 b7 00 00 00       	callq  403690 <wtime_>
  4035d9:	f2 0f 10 04 24       	movsd  (%rsp),%xmm0
  4035de:	58                   	pop    %rax
  4035df:	c3                   	retq   

00000000004035e0 <timer_clear>:
  4035e0:	48 63 c7             	movslq %edi,%rax
  4035e3:	48 c7 04 c5 a0 a5 13 	movq   $0x0,0x113a5a0(,%rax,8)
  4035ea:	01 00 00 00 00 
  4035ef:	c3                   	retq   

00000000004035f0 <timer_start>:
  4035f0:	53                   	push   %rbx
  4035f1:	48 83 ec 10          	sub    $0x10,%rsp
  4035f5:	89 fb                	mov    %edi,%ebx
  4035f7:	48 8d 7c 24 08       	lea    0x8(%rsp),%rdi
  4035fc:	e8 8f 00 00 00       	callq  403690 <wtime_>
  403601:	48 8b 44 24 08       	mov    0x8(%rsp),%rax
  403606:	48 63 cb             	movslq %ebx,%rcx
  403609:	48 89 04 cd a0 a7 13 	mov    %rax,0x113a7a0(,%rcx,8)
  403610:	01 
  403611:	48 83 c4 10          	add    $0x10,%rsp
  403615:	5b                   	pop    %rbx
  403616:	c3                   	retq   
  403617:	66 0f 1f 84 00 00 00 	nopw   0x0(%rax,%rax,1)
  40361e:	00 00 

0000000000403620 <timer_stop>:
  403620:	53                   	push   %rbx
  403621:	48 83 ec 10          	sub    $0x10,%rsp
  403625:	89 fb                	mov    %edi,%ebx
  403627:	48 8d 7c 24 08       	lea    0x8(%rsp),%rdi
  40362c:	e8 5f 00 00 00       	callq  403690 <wtime_>
  403631:	f2 0f 10 44 24 08    	movsd  0x8(%rsp),%xmm0
  403637:	48 63 c3             	movslq %ebx,%rax
  40363a:	f2 0f 5c 04 c5 a0 a7 	subsd  0x113a7a0(,%rax,8),%xmm0
  403641:	13 01 
  403643:	f2 0f 58 04 c5 a0 a5 	addsd  0x113a5a0(,%rax,8),%xmm0
  40364a:	13 01 
  40364c:	f2 0f 11 04 c5 a0 a5 	movsd  %xmm0,0x113a5a0(,%rax,8)
  403653:	13 01 
  403655:	48 83 c4 10          	add    $0x10,%rsp
  403659:	5b                   	pop    %rbx
  40365a:	c3                   	retq   
  40365b:	0f 1f 44 00 00       	nopl   0x0(%rax,%rax,1)

0000000000403660 <timer_read>:
  403660:	48 63 c7             	movslq %edi,%rax
  403663:	f2 0f 10 04 c5 a0 a5 	movsd  0x113a5a0(,%rax,8),%xmm0
  40366a:	13 01 
  40366c:	c3                   	retq   
  40366d:	0f 1f 00             	nopl   (%rax)

0000000000403670 <region_lower_bound>:
  403670:	31 c0                	xor    %eax,%eax
  403672:	c3                   	retq   
  403673:	66 2e 0f 1f 84 00 00 	nopw   %cs:0x0(%rax,%rax,1)
  40367a:	00 00 00 
  40367d:	0f 1f 00             	nopl   (%rax)

0000000000403680 <region_upper_bound>:
  403680:	48 c7 c0 ff ff ff ff 	mov    $0xffffffffffffffff,%rax
  403687:	c3                   	retq   
  403688:	0f 1f 84 00 00 00 00 	nopl   0x0(%rax,%rax,1)
  40368f:	00 

0000000000403690 <wtime_>:
  403690:	53                   	push   %rbx
  403691:	48 83 ec 10          	sub    $0x10,%rsp
  403695:	48 89 fb             	mov    %rdi,%rbx
  403698:	48 89 e7             	mov    %rsp,%rdi
  40369b:	31 f6                	xor    %esi,%esi
  40369d:	e8 ae d9 ff ff       	callq  401050 <gettimeofday@plt>
  4036a2:	8b 0d b0 29 00 00    	mov    0x29b0(%rip),%ecx        # 406058 <wtime_.sec>
  4036a8:	48 8b 04 24          	mov    (%rsp),%rax
  4036ac:	85 c9                	test   %ecx,%ecx
  4036ae:	79 08                	jns    4036b8 <wtime_+0x28>
  4036b0:	89 05 a2 29 00 00    	mov    %eax,0x29a2(%rip)        # 406058 <wtime_.sec>
  4036b6:	89 c1                	mov    %eax,%ecx
  4036b8:	48 63 c9             	movslq %ecx,%rcx
  4036bb:	48 29 c8             	sub    %rcx,%rax
  4036be:	f2 48 0f 2a c0       	cvtsi2sd %rax,%xmm0
  4036c3:	f2 48 0f 2a 4c 24 08 	cvtsi2sdq 0x8(%rsp),%xmm1
  4036ca:	f2 0f 59 0d 26 0f 00 	mulsd  0xf26(%rip),%xmm1        # 4045f8 <_IO_stdin_used+0x5f8>
  4036d1:	00 
  4036d2:	f2 0f 58 c8          	addsd  %xmm0,%xmm1
  4036d6:	f2 0f 11 0b          	movsd  %xmm1,(%rbx)
  4036da:	48 83 c4 10          	add    $0x10,%rsp
  4036de:	5b                   	pop    %rbx
  4036df:	c3                   	retq   

00000000004036e0 <__libc_csu_init>:
  4036e0:	f3 0f 1e fa          	endbr64 
  4036e4:	41 57                	push   %r15
  4036e6:	4c 8d 3d 13 27 00 00 	lea    0x2713(%rip),%r15        # 405e00 <__frame_dummy_init_array_entry>
  4036ed:	41 56                	push   %r14
  4036ef:	49 89 d6             	mov    %rdx,%r14
  4036f2:	41 55                	push   %r13
  4036f4:	49 89 f5             	mov    %rsi,%r13
  4036f7:	41 54                	push   %r12
  4036f9:	41 89 fc             	mov    %edi,%r12d
  4036fc:	55                   	push   %rbp
  4036fd:	48 8d 2d 04 27 00 00 	lea    0x2704(%rip),%rbp        # 405e08 <__do_global_dtors_aux_fini_array_entry>
  403704:	53                   	push   %rbx
  403705:	4c 29 fd             	sub    %r15,%rbp
  403708:	48 83 ec 08          	sub    $0x8,%rsp
  40370c:	e8 ef d8 ff ff       	callq  401000 <_init>
  403711:	48 c1 fd 03          	sar    $0x3,%rbp
  403715:	74 1f                	je     403736 <__libc_csu_init+0x56>
  403717:	31 db                	xor    %ebx,%ebx
  403719:	0f 1f 80 00 00 00 00 	nopl   0x0(%rax)
  403720:	4c 89 f2             	mov    %r14,%rdx
  403723:	4c 89 ee             	mov    %r13,%rsi
  403726:	44 89 e7             	mov    %r12d,%edi
  403729:	41 ff 14 df          	callq  *(%r15,%rbx,8)
  40372d:	48 83 c3 01          	add    $0x1,%rbx
  403731:	48 39 dd             	cmp    %rbx,%rbp
  403734:	75 ea                	jne    403720 <__libc_csu_init+0x40>
  403736:	48 83 c4 08          	add    $0x8,%rsp
  40373a:	5b                   	pop    %rbx
  40373b:	5d                   	pop    %rbp
  40373c:	41 5c                	pop    %r12
  40373e:	41 5d                	pop    %r13
  403740:	41 5e                	pop    %r14
  403742:	41 5f                	pop    %r15
  403744:	c3                   	retq   
  403745:	66 66 2e 0f 1f 84 00 	data16 nopw %cs:0x0(%rax,%rax,1)
  40374c:	00 00 00 00 

0000000000403750 <__libc_csu_fini>:
  403750:	f3 0f 1e fa          	endbr64 
  403754:	c3                   	retq   

Disassembly of section .fini:

0000000000403758 <_fini>:
  403758:	f3 0f 1e fa          	endbr64 
  40375c:	48 83 ec 08          	sub    $0x8,%rsp
  403760:	48 83 c4 08          	add    $0x8,%rsp
  403764:	c3                   	retq   
